((dp1
VHDFSToS3_2019_01_07_None_False_c479afd76e
p2
ccopy_reg
_reconstructor
p3
(cluigi.scheduler
Task
p4
c__builtin__
object
p5
NtRp6
(dp7
S'family'
p8
VHDFSToS3
p9
sS'module'
p10
VdumpMergerHDFSToS3
p11
sS'id'
p12
g2
sS'retry'
p13
NsS'batchable'
p14
I00
sS'workers'
p15
g3
(cluigi.scheduler
OrderedSet
p16
g5
NtRp17
(dp18
S'map'
p19
(dp20
sS'end'
p21
(lp22
Nag22
ag22
asbsS'retry_policy'
p23
g3
(cluigi.scheduler
RetryPolicy
p24
c__builtin__
tuple
p25
(I999999999
I999999999
I3600
ttRp26
sS'priority'
p27
I0
sS'params'
p28
(dp29
Vsrc
p30
Vs3n://chaordic-dumps/hourly/busca-searchapirequest/2019/01/07/*/*/*.*
p31
sVpartition
p32
V${apiKey}/${apiKey}_
p33
sVforce
p34
VTrue
p35
sVdry_run
p36
VFalse
p37
sVtopic_virginia
p38
Vsearch_bbi
p39
sVevent
p40
Vbusca-searchapirequest
p41
sVsend_email
p42
VFalse
p43
sVdirectory_to_execute
p44
VNone
p45
sVenv
p46
Vdev
p47
sVdump_destination
p48
Vdumps_daily
p49
sVdate_to_run
p50
V2019/01/07
p51
ssS'batch_id'
p52
NsS'status_message'
p53
NsS'resources'
p54
(dp55
sS'stakeholders'
p56
c__builtin__
set
p57
((ltRp58
sS'status'
p59
VDONE
p60
sS'updated'
p61
F1547036935.699717
sS'time'
p62
F1546945960.2434721
sS'time_running'
p63
F1547036836.011986
sS'worker_running'
p64
VWorker(salt=847977707, workers=20, host=platform-luigi-02, username=luigi, pid=4379)
p65
sS'tracking_url'
p66
NsS'runnable'
p67
I01
sS'remove'
p68
F1547086773.6299911
sS'deps'
p69
g57
((lp70
VDumpMerger__mnt_platform_du_2019_01_07_False_cb3104fa2c
p71
atRp72
sS'expl'
p73
Vnull
p74
sS'scheduler_disable_time'
p75
NsS'failures'
p76
g3
(cluigi.scheduler
Failures
p77
g5
NtRp78
(dp79
g76
ccollections
deque
p80
((ltRp81
sS'window'
p82
I3600
sS'first_failure_time'
p83
NsbsbsVUpdateHive_None_2019_01_07_None_c0fe64dbba
p84
g3
(g4
g5
NtRp85
(dp86
g8
VUpdateHive
p87
sg10
VplatformDumps
p88
sg12
g84
sg13
Nsg14
I00
sg15
g3
(g16
g5
NtRp89
(dp90
g19
(dp91
sg21
(lp92
Nag92
ag92
asbsg23
g3
(g24
g25
(I999999999
I999999999
I3600
ttRp93
sg27
I0
sg28
(dp94
Vcolumn_family
p95
VNone
p96
sVforce
p97
VTrue
p98
sVdry_run
p99
VFalse
p100
sVevent
p101
Vmailopens
p102
sVsend_email
p103
VFalse
p104
sVdirectory_to_execute
p105
VNone
p106
sVenv
p107
Vdev
p108
sVdump_type
p109
Vdump_revent
p110
sVhive_table
p111
Vmailopens
p112
sVdate_to_run
p113
V2019-01-07
p114
ssg52
Nsg53
Nsg54
(dp115
sg56
g57
((ltRp116
sg59
VDONE
p117
sg61
F1547040100.080183
sg62
F1546945966.1417429
sg63
F1547039985.1199019
sg64
VWorker(salt=847977707, workers=20, host=platform-luigi-02, username=luigi, pid=4379)
p118
sg66
Nsg67
I01
sg68
F1547086773.6300011
sg69
g57
((lp119
VDumpRevents_2019_01_07_None_False_f21d2770fb
p120
atRp121
sg73
Vnull
p122
sg75
Nsg76
g3
(g77
g5
NtRp123
(dp124
g76
g80
((ltRp125
sg82
I3600
sg83
NsbsbsVUpdateHive_2019_01_07_None_False_39a15c0ac9
p126
g3
(g4
g5
NtRp127
(dp128
g8
VUpdateHive
p129
sg10
VdumpMergerHDFSToS3
p130
sg12
g126
sg13
Nsg14
I00
sg15
g3
(g16
g5
NtRp131
(dp132
g19
(dp133
sg21
(lp134
Nag134
ag134
asbsg23
g3
(g24
g25
(I999999999
I999999999
I3600
ttRp135
sg27
I0
sg28
(dp136
Vforce
p137
VTrue
p138
sVdry_run
p139
VFalse
p140
sVdump_destination
p141
Vdumps_daily
p142
sVevent
p143
Vbusca-searchapirequest
p144
sVsend_email
p145
VFalse
p146
sVdirectory_to_execute
p147
VNone
p148
sVenv
p149
Vdev
p150
sVhive_table
p151
Vsearch_bbi
p152
sVdate_to_run
p153
V2019/01/07
p154
ssg52
Nsg53
Nsg54
(dp155
sg56
g57
((ltRp156
sg59
VDONE
p157
sg61
F1547037846.2915211
sg62
F1546945959.9549711
sg63
F1547036935.704886
sg64
VWorker(salt=847977707, workers=20, host=platform-luigi-02, username=luigi, pid=4379)
p158
sg66
Nsg67
I01
sg68
F1547086773.630007
sg69
g57
((lp159
VHDFSToS3_2019_01_07_None_False_c479afd76e
p160
atRp161
sg73
Vnull
p162
sg75
Nsg76
g3
(g77
g5
NtRp163
(dp164
g76
g80
((ltRp165
sg82
I3600
sg83
NsbsbsVDumpMerger__mnt_platform_du_2019_01_07_False_a341874213
p166
g3
(g4
g5
NtRp167
(dp168
g8
VDumpMerger
p169
sg10
VdumpMergerHDFSToS3
p170
sg12
g166
sg13
Nsg14
I00
sg15
g3
(g16
g5
NtRp171
(dp172
g19
(dp173
sg21
(lp174
Nag174
ag174
asbsg23
g3
(g24
g25
(I999999999
I999999999
I3600
ttRp175
sg27
I0
sg28
(dp176
Vsrc
p177
Vs3n://chaordic-dumps/hourly/sentMail/2019/01/07/*/*/*.*
p178
sVforce
p179
VTrue
p180
sVdry_run
p181
VFalse
p182
sVdst
p183
Vuser/luigi/dev/daily/sentMail/2019/01/07
p184
sVpartition
p185
V${apiKey}/${apiKey}_
p186
sVsend_email
p187
VFalse
p188
sVentry_class
p189
Vcom.chaordicsystems.platform.dump.util.DumpPartitioner
p190
sVjob_identifier
p191
VsentMail
p192
sVenv
p193
Vdev
p194
sVapp
p195
V/mnt/platform-dumps-spark/target/scala-2.10/platform-spark-dumps-assembly-0.2.jar
p196
sVdate_to_run
p197
V2019/01/07
p198
ssg52
Nsg53
Nsg54
(dp199
sg56
g57
((ltRp200
sg59
VDONE
p201
sg61
F1547036658.3846431
sg62
F1546945964.7922969
sg63
F1547036158.610013
sg64
VWorker(salt=847977707, workers=20, host=platform-luigi-02, username=luigi, pid=4379)
p202
sg66
Nsg67
I01
sg68
F1547086773.630012
sg69
g57
((ltRp203
sg73
Vnull
p204
sg75
Nsg76
g3
(g77
g5
NtRp205
(dp206
g76
g80
((ltRp207
sg82
I3600
sg83
NsbsbsVRunDumpsKafka___2019_01_07_False_53ca3ba4a2
p208
g3
(g4
g5
NtRp209
(dp210
g8
VRunDumpsKafka
p211
sg10
VdumpMergerHDFSToS3
p212
sg12
g208
sg13
Nsg14
I00
sg15
g3
(g16
g5
NtRp213
(dp214
g19
(dp215
sg21
(lp216
Nag216
ag216
asbsg23
g3
(g24
g25
(I999999999
I999999999
I3600
ttRp217
sg27
I0
sg28
(dp218
Vapikey
p219
V*
sVforce
p220
VTrue
p221
sVdry_run
p222
VFalse
p223
sVuse_hive
p224
VTrue
p225
sVevents
p226
V[]
p227
sVsend_email
p228
VFalse
p229
sVenv
p230
Vdev
p231
sVdate_to_run
p232
V2019/01/07
p233
ssg52
Nsg53
Nsg54
(dp234
sg56
g57
((ltRp235
sg59
VDONE
p236
sg61
F1547039618.8893361
sg62
F1546945952.1340671
sg63
F1547039618.5330479
sg64
VWorker(salt=847977707, workers=20, host=platform-luigi-02, username=luigi, pid=4379)
p237
sg66
Nsg67
I01
sg68
F1547086773.630017
sg69
g57
((lp238
VUpdateHive_2019_01_07_None_False_ceedd6fe03
p239
aVUpdateHive_2019_01_07_None_False_39a15c0ac9
p240
atRp241
sg73
Vnull
p242
sg75
Nsg76
g3
(g77
g5
NtRp243
(dp244
g76
g80
((ltRp245
sg82
I3600
sg83
NsbsbsVHDFSToS3_2019_01_07_None_False_966665c2ab
p246
g3
(g4
g5
NtRp247
(dp248
g8
VHDFSToS3
p249
sg10
VdumpMergerHDFSToS3
p250
sg12
g246
sg13
Nsg14
I00
sg15
g3
(g16
g5
NtRp251
(dp252
g19
(dp253
sg21
(lp254
Nag254
ag254
asbsg23
g3
(g24
g25
(I999999999
I999999999
I3600
ttRp255
sg27
I0
sg28
(dp256
Vsrc
p257
Vs3n://chaordic-dumps/hourly/pageViews/2019/01/07/*/*/*.*
p258
sVpartition
p259
V${apiKey}/${apiKey}_
p260
sVforce
p261
VTrue
p262
sVdry_run
p263
VFalse
p264
sVtopic_virginia
p265
VpageViews
p266
sVevent
p267
VpageViews
p268
sVsend_email
p269
VFalse
p270
sVdirectory_to_execute
p271
VNone
p272
sVenv
p273
Vdev
p274
sVdump_destination
p275
Vdumps_daily
p276
sVdate_to_run
p277
V2019/01/07
p278
ssg52
Nsg53
Nsg54
(dp279
sg56
g57
((ltRp280
sg59
VDONE
p281
sg61
F1547038625.799542
sg62
F1546945954.1230011
sg63
F1547038457.958391
sg64
VWorker(salt=847977707, workers=20, host=platform-luigi-02, username=luigi, pid=4379)
p282
sg66
Nsg67
I01
sg68
F1547086773.630022
sg69
g57
((lp283
VDumpMerger__mnt_platform_du_2019_01_07_False_47bd4a857d
p284
atRp285
sg73
Vnull
p286
sg75
Nsg76
g3
(g77
g5
NtRp287
(dp288
g76
g80
((ltRp289
sg82
I3600
sg83
NsbsbsVOnsiteETL_2019_01_07_None_False_7082ee0ee7
p290
g3
(g4
g5
NtRp291
(dp292
g8
VOnsiteETL
p293
sg10
Vonsite
p294
sg12
g290
sg13
Nsg14
I00
sg15
g3
(g16
g5
NtRp295
(dp296
g19
(dp297
sg21
(lp298
Nag298
ag298
asbsg23
g3
(g24
g25
(I999999999
I999999999
I3600
ttRp299
sg27
I0
sg28
(dp300
Vstep_to_execute
p301
V-T
p302
sVonsite_jobs
p303
V
sVforce
p304
VTrue
p305
sVonsite_client
p306
V
sVdry_run
p307
VFalse
p308
sVonly_plat_flow
p309
VFalse
p310
sVsend_email
p311
VFalse
p312
sVdirectory_to_execute
p313
VNone
p314
sVenv
p315
Vdev
p316
sVdate_to_run
p317
V2019-01-07
p318
ssg52
Nsg53
Nsg54
(dp319
sg56
g57
((ltRp320
sg59
VPENDING
p321
sg61
F1546980154.3588369
sg62
F1546980153.2530379
sg63
Nsg64
Nsg66
Nsg67
I01
sg68
F1547086773.6300271
sg69
g57
((lp322
VRunPlatformSessionMaker______Event_Transac_2019_01_07_6edae33f5c
p323
aVRunDumpsCassandra___2019_01_07_False_18093e4cde
p324
aVFromHourlyToHiveEvents___2019_01_07_False_1e65565410
p325
atRp326
sg73
Nsg75
Nsg76
g3
(g77
g5
NtRp327
(dp328
g76
g80
((ltRp329
sg82
I3600
sg83
NsbsbsVDumpEventUsingHDFS_Event_ViewCart_2019_01_07_None_3adaa66d53
p330
g3
(g4
g5
NtRp331
(dp332
g8
VDumpEventUsingHDFS
p333
sg10
VplatformDumps
p334
sg12
g330
sg13
F1547043678.263999
sg14
I00
sg15
g3
(g16
g5
NtRp335
(dp336
g19
(dp337
sg21
(lp338
Nag338
ag338
asbsg23
g3
(g24
g25
(I999999999
I999999999
I3600
ttRp339
sg27
I5
sg28
(dp340
Vcolumn_family
p341
VEvent_ViewCart
p342
sVforce
p343
VTrue
p344
sVdry_run
p345
VFalse
p346
sVevent
p347
VshoppingCarts
p348
sVsend_email
p349
VFalse
p350
sVdirectory_to_execute
p351
VNone
p352
sVenv
p353
Vdev
p354
sVextra_opts
p355
V('-Dmapreduce.map.memory.mb=512', '-Dmapreduce.reduce.memory.mb=1024', '-Dmapreduce.map.java.opts=-Xmx456m', '-Dmapreduce.reduce.java.opts=-Xmx819m')
p356
sVdate_to_run
p357
V2019-01-07
p358
sVopts
p359
V-cek
p360
ssg52
Nsg53
Nsg54
(dp361
Vmax_parallel_cassandra_tasks
p362
I1
ssg56
g57
((ltRp363
sg59
S'PENDING'
p364
sg61
F1547043693.6296141
sg62
F1546945955.5527689
sg63
F1547041294.1713879
sg64
VWorker(salt=847977707, workers=20, host=platform-luigi-02, username=luigi, pid=4379)
p365
sg66
Nsg67
I01
sg68
F1547086773.6300321
sg69
g57
((lp366
VUpdateClientsLists_2019_01_08_None_False_0f36255ac8
p367
atRp368
sg73
Vnull
p369
sg75
Nsg76
g3
(g77
g5
NtRp370
(dp371
g76
g80
((lp372
F1547040333.8470371
aF1547042778.2639749
atRp373
sg82
I3600
sg83
F1546946551.9131241
sbsbsVDumpSoftUsers__mnt_platform_du_2019_01_07_False_065ad08018
p374
g3
(g4
g5
NtRp375
(dp376
g8
VDumpSoftUsers
p377
sg10
VdumpSoftUsers
p378
sg12
g374
sg13
F1546948179.620682
sg14
I00
sg15
g3
(g16
g5
NtRp379
(dp380
g19
(dp381
sg21
(lp382
Nag382
ag382
asbsg23
g3
(g24
g25
(I999999999
I999999999
I3600
ttRp383
sg27
I0
sg28
(dp384
Vforce
p385
VTrue
p386
sVdry_run
p387
VFalse
p388
sVapp
p389
V/mnt/platform-dumps-spark/target/scala-2.10/platform-spark-dumps-assembly-0.2.jar
p390
sVsend_email
p391
VFalse
p392
sVjob_identifier
p393
Vsoftusers
p394
sVenv
p395
Vdev
p396
sVdate_to_run
p397
V2019/01/07
p398
ssg52
Nsg53
Nsg54
(dp399
sg56
g57
((ltRp400
sg59
VDONE
p401
sg61
F1547037625.9918001
sg62
F1546945963.8019781
sg63
F1547036158.490937
sg64
VWorker(salt=847977707, workers=20, host=platform-luigi-02, username=luigi, pid=4379)
p402
sg66
Nsg67
I01
sg68
F1547086773.630039
sg69
g57
((ltRp403
sg73
Vnull
p404
sg75
Nsg76
g3
(g77
g5
NtRp405
(dp406
g76
g80
((lp407
F1546947279.6206081
atRp408
sg82
I3600
sg83
F1546947279.6206081
sbsbsVPopulateAuxTable__mnt_platform_sp_2019_01_07_cluster_5c7ced3ec4
p409
g3
(g4
g5
NtRp410
(dp411
g8
VPopulateAuxTable
p412
sg10
VsessionMaker
p413
sg12
g409
sg13
F1546989268.2813411
sg14
I00
sg15
g3
(g16
g5
NtRp414
(dp415
g19
(dp416
sg21
(lp417
Nag417
ag417
asbsg23
g3
(g24
g25
(I999999999
I999999999
I3600
ttRp418
sg27
I0
sg28
(dp419
Vforce
p420
VTrue
p421
sVdeploy_mode
p422
Vcluster
p423
sVdry_run
p424
VFalse
p425
sVdriver_memory
p426
V9g
p427
sVnum_executors
p428
V80
p429
sVdate_to_run
p430
V2019-01-07
p431
sVqueue
p432
Vspark
p433
sVsend_email
p434
VFalse
p435
sVentry_class
p436
Vplatform.etl.PopulateAuxTable
p437
sVjob_identifier
p438
Vclicks_bbi
p439
sVmaster
p440
Vyarn-cluster
p441
sVenv
p442
Vdev
p443
sVexecutor_memory
p444
V4500m
p445
sVapp
p446
V/mnt/platform-spark/target/scala-2.11/platform-spark-assembly-0.1.jar
p447
sVevent
p448
Vclicks_bbi
p449
sVspark_submit
p450
V/usr/hdp/2.6.5.0-292/spark2/bin/spark-submit
p451
ssg52
Nsg53
Nsg54
(dp452
sg56
g57
((ltRp453
sg59
g364
sg61
F1546989273.571358
sg62
F1546945958.278162
sg63
F1546986578.284251
sg64
VWorker(salt=612279892, workers=20, host=platform-luigi-02, username=luigi, pid=29555)
p454
sg66
Nsg67
I01
sg68
F1547086773.6300449
sg69
g57
((lp455
VSessionMaker__mnt_platform_sp_2019_01_07_cluster_6badb8f9d4
p456
atRp457
sg73
Vnull
p458
sg75
Nsg76
g3
(g77
g5
NtRp459
(dp460
g76
g80
((lp461
F1546988368.2813189
atRp462
sg82
I3600
sg83
F1546988368.2813189
sbsbsVPopulateAuxTable__mnt_platform_sp_2019_01_07_cluster_6c17be2979
p463
g3
(g4
g5
NtRp464
(dp465
g8
VPopulateAuxTable
p466
sg10
VsessionMaker
p467
sg12
g463
sg13
F1546989416.541151
sg14
I00
sg15
g3
(g16
g5
NtRp468
(dp469
g19
(dp470
sg21
(lp471
Nag471
ag471
asbsg23
g3
(g24
g25
(I999999999
I999999999
I3600
ttRp472
sg27
I0
sg28
(dp473
Vforce
p474
VTrue
p475
sVdeploy_mode
p476
Vcluster
p477
sVdry_run
p478
VFalse
p479
sVdriver_memory
p480
V9g
p481
sVnum_executors
p482
V80
p483
sVdate_to_run
p484
V2019-01-07
p485
sVqueue
p486
Vspark
p487
sVsend_email
p488
VFalse
p489
sVentry_class
p490
Vplatform.etl.PopulateAuxTable
p491
sVjob_identifier
p492
VbuyOrders
p493
sVmaster
p494
Vyarn-cluster
p495
sVenv
p496
Vdev
p497
sVexecutor_memory
p498
V4500m
p499
sVapp
p500
V/mnt/platform-spark/target/scala-2.11/platform-spark-assembly-0.1.jar
p501
sVevent
p502
VbuyOrders
p503
sVspark_submit
p504
V/usr/hdp/2.6.5.0-292/spark2/bin/spark-submit
p505
ssg52
Nsg53
Nsg54
(dp506
sg56
g57
((ltRp507
sg59
g364
sg61
F1546989453.5702801
sg62
F1546945959.690902
sg63
F1546986580.050199
sg64
VWorker(salt=612279892, workers=20, host=platform-luigi-02, username=luigi, pid=29555)
p508
sg66
Nsg67
I01
sg68
F1547086773.630049
sg69
g57
((lp509
VSessionMaker__mnt_platform_sp_2019_01_07_cluster_6badb8f9d4
p510
atRp511
sg73
Vnull
p512
sg75
Nsg76
g3
(g77
g5
NtRp513
(dp514
g76
g80
((lp515
F1546988516.5411279
atRp516
sg82
I3600
sg83
F1546988516.5411279
sbsbsVPopulateAuxTable__mnt_platform_sp_2019_01_07_cluster_debb7dc3c9
p517
g3
(g4
g5
NtRp518
(dp519
g8
VPopulateAuxTable
p520
sg10
VsessionMaker
p521
sg12
g517
sg13
F1547037033.606503
sg14
I00
sg15
g3
(g16
g5
NtRp522
(dp523
g19
(dp524
sg21
(lp525
Nag525
ag525
asbsg23
g3
(g24
g25
(I999999999
I999999999
I3600
ttRp526
sg27
I0
sg28
(dp527
Vforce
p528
VTrue
p529
sVdeploy_mode
p530
Vcluster
p531
sVdry_run
p532
VFalse
p533
sVdriver_memory
p534
V9g
p535
sVnum_executors
p536
V80
p537
sVdate_to_run
p538
V2019-01-07
p539
sVqueue
p540
Vspark
p541
sVsend_email
p542
VFalse
p543
sVentry_class
p544
Vplatform.etl.PopulateAuxTable
p545
sVjob_identifier
p546
VpageViews
p547
sVmaster
p548
Vyarn-cluster
p549
sVenv
p550
Vdev
p551
sVexecutor_memory
p552
V4500m
p553
sVapp
p554
V/mnt/platform-spark/target/scala-2.11/platform-spark-assembly-0.1.jar
p555
sVevent
p556
VpageViews
p557
sVspark_submit
p558
V/usr/hdp/2.6.5.0-292/spark2/bin/spark-submit
p559
ssg52
Nsg53
Nsg54
(dp560
sg56
g57
((ltRp561
sg59
VPENDING
p562
sg61
F1547036147.7840669
sg62
F1546945958.7012169
sg63
F1546986578.860188
sg64
Nsg66
Nsg67
I01
sg68
F1547086773.630054
sg69
g57
((lp563
VSessionMaker__mnt_platform_sp_2019_01_07_cluster_6badb8f9d4
p564
atRp565
sg73
Vnull
p566
sg75
Nsg76
g3
(g77
g5
NtRp567
(dp568
g76
g80
((lp569
F1547036133.6064811
atRp570
sg82
I3600
sg83
F1547036133.6064811
sbsbsVRunPlatformETLWorkflow___2019_01_07_False_069563db29
p571
g3
(g4
g5
NtRp572
(dp573
g8
VRunPlatformETLWorkflow
p574
sg10
VplatformWorkflow
p575
sg12
g571
sg13
Nsg14
I00
sg15
g3
(g16
g5
NtRp576
(dp577
g19
(dp578
sg21
(lp579
Nag579
ag579
asbsg23
g3
(g24
g25
(I999999999
I999999999
I3600
ttRp580
sg27
I0
sg28
(dp581
Vmail_jobs
p582
V
sVapikey
p583
V*
sVforce
p584
VTrue
p585
sVonsite_client
p586
V
sVdry_run
p587
VFalse
p588
sVonsite_jobs
p589
V
sVonly_plat_flow
p590
VFalse
p591
sVuse_hive
p592
VTrue
p593
sVevents
p594
V[]
p595
sVsend_email
p596
VFalse
p597
sVmail_client
p598
V
sVenv
p599
Vdev
p600
sVlaunch_instances
p601
VFalse
p602
sVdate_to_run
p603
V2019/01/07
p604
ssg52
Nsg53
Nsg54
(dp605
sg56
g57
((ltRp606
sg59
g364
sg61
F1546980139.1176579
sg62
F1546980139.1176579
sg63
Nsg64
Nsg66
Nsg67
I01
sg68
F1547086773.6300581
sg69
g57
((lp607
VRunDumpsKafka___2019_01_07_False_53ca3ba4a2
p608
aVRunETLMail___2019_01_07_False_2ba755cc1e
p609
aVRunBaseMetrics___2019_01_07_False_fa38685619
p610
aVRunETLOnsite___2019_01_07_False_90d873f9de
p611
aVRunDumpsCassandra___2019_01_07_False_53ca3ba4a2
p612
aVRunTopN___2019_01_07_False_7aa206fb63
p613
aVRunPlatformSessionMaker______2019_01_07_acf1caf2f8
p614
atRp615
sg73
Nsg75
Nsg76
g3
(g77
g5
NtRp616
(dp617
g76
g80
((ltRp618
sg82
I3600
sg83
NsbsbsVRunBaseMetrics___2019_01_07_False_fa38685619
p619
g3
(g4
g5
NtRp620
(dp621
g8
VRunBaseMetrics
p622
sg10
VbaseMetrics
p623
sg12
g619
sg13
Nsg14
I00
sg15
g3
(g16
g5
NtRp624
(dp625
g19
(dp626
sg21
(lp627
Nag627
ag627
asbsg23
g3
(g24
g25
(I999999999
I999999999
I3600
ttRp628
sg27
I0
sg28
(dp629
Vapikey
p630
V*
sVforce
p631
VTrue
p632
sVdry_run
p633
VFalse
p634
sVuse_hive
p635
VFalse
p636
sVevents
p637
V[]
p638
sVsend_email
p639
VFalse
p640
sVenv
p641
Vdev
p642
sVdate_to_run
p643
V2019/01/07
p644
ssg52
Nsg53
Nsg54
(dp645
sg56
g57
((ltRp646
sg59
VPENDING
p647
sg61
F1546980139.508683
sg62
F1546945952.134084
sg63
F1546957227.9165039
sg64
VWorker(salt=023470692, workers=20, host=platform-luigi-02, username=luigi, pid=22220)
p648
sg66
Nsg67
I01
sg68
F1547086773.6300631
sg69
g57
((lp649
VBaseMetricJob__mnt_platform_sp_2019_01_07_cluster_af86510cbd
p650
aVBaseMetricJob__mnt_platform_sp_2019_01_07_cluster_f81bc53b44
p651
aVBaseMetricJob__mnt_platform_sp_2019_01_07_cluster_02509cf6c6
p652
aVBaseMetricJob__mnt_platform_sp_2019_01_07_cluster_c1b2532dde
p653
atRp654
sg73
Vnull
p655
sg75
Nsg76
g3
(g77
g5
NtRp656
(dp657
g76
g80
((ltRp658
sg82
I3600
sg83
NsbsbsVOnsiteETL_2019_01_07_None_False_0cc4954a87
p659
g3
(g4
g5
NtRp660
(dp661
g8
VOnsiteETL
p662
sg10
Vonsite
p663
sg12
g659
sg13
Nsg14
I00
sg15
g3
(g16
g5
NtRp664
(dp665
g19
(dp666
sg21
(lp667
Nag667
ag667
asbsg23
g3
(g24
g25
(I999999999
I999999999
I3600
ttRp668
sg27
I0
sg28
(dp669
Vstep_to_execute
p670
V-L
p671
sVonsite_jobs
p672
V
sVforce
p673
VTrue
p674
sVonsite_client
p675
V
sVdry_run
p676
VFalse
p677
sVonly_plat_flow
p678
VFalse
p679
sVsend_email
p680
VFalse
p681
sVdirectory_to_execute
p682
VNone
p683
sVenv
p684
Vdev
p685
sVdate_to_run
p686
V2019-01-07
p687
ssg52
Nsg53
Nsg54
(dp688
sg56
g57
((ltRp689
sg59
VPENDING
p690
sg61
F1546980153.253021
sg62
F1546980152.9664609
sg63
Nsg64
Nsg66
Nsg67
I01
sg68
F1547086773.6300681
sg69
g57
((lp691
VOnsiteETL_2019_01_07_None_False_7082ee0ee7
p692
atRp693
sg73
Nsg75
Nsg76
g3
(g77
g5
NtRp694
(dp695
g76
g80
((ltRp696
sg82
I3600
sg83
NsbsbsVUpdateHiveInsertOnly_2019_01_07_None_False_3b5cde55e6
p697
g3
(g4
g5
NtRp698
(dp699
g8
VUpdateHiveInsertOnly
p700
sg10
VsessionMaker
p701
sg12
g697
sg13
Nsg14
I00
sg15
g3
(g16
g5
NtRp702
(dp703
g19
(dp704
sg21
(lp705
Nag705
ag705
asbsg23
g3
(g24
g25
(I999999999
I999999999
I3600
ttRp706
sg27
I0
sg28
(dp707
Vforce
p708
VTrue
p709
sVdry_run
p710
VFalse
p711
sVevent
p712
Vsearch-search
p713
sVsend_email
p714
VFalse
p715
sVdirectory_to_execute
p716
VNone
p717
sVenv
p718
Vdev
p719
sVhive_table
p720
Vsearch_view
p721
sVdate_to_run
p722
V2019-01-07
p723
ssg52
Nsg53
Nsg54
(dp724
sg56
g57
((ltRp725
sg59
VPENDING
p726
sg61
F1546980145.628365
sg62
F1546945958.0899401
sg63
F1546955374.458514
sg64
VWorker(salt=023470692, workers=20, host=platform-luigi-02, username=luigi, pid=22220)
p727
sg66
Nsg67
I01
sg68
F1547086773.630074
sg69
g57
((lp728
VPopulateAuxTable__mnt_platform_sp_2019_01_07_cluster_6ca386d76b
p729
atRp730
sg73
Vnull
p731
sg75
Nsg76
g3
(g77
g5
NtRp732
(dp733
g76
g80
((ltRp734
sg82
I3600
sg83
NsbsbsVUpdateHive_Event_RealAnonym_2019_01_07_None_61fbc5bacc
p735
g3
(g4
g5
NtRp736
(dp737
g8
VUpdateHive
p738
sg10
VplatformDumps
p739
sg12
g735
sg13
Nsg14
I00
sg15
g3
(g16
g5
NtRp740
(dp741
g19
(dp742
sg21
(lp743
Nag743
ag743
asbsg23
g3
(g24
g25
(I999999999
I999999999
I3600
ttRp744
sg27
I0
sg28
(dp745
Vcolumn_family
p746
VEvent_RealAnonymous
p747
sVforce
p748
VTrue
p749
sVdry_run
p750
VFalse
p751
sVevent
p752
VrealAnonymous
p753
sVsend_email
p754
VFalse
p755
sVdirectory_to_execute
p756
VNone
p757
sVenv
p758
Vdev
p759
sVdump_type
p760
Vdump_event
p761
sVhive_table
p762
VrealAnonymous
p763
sVdate_to_run
p764
V2019-01-07
p765
ssg52
Nsg53
Nsg54
(dp766
sg56
g57
((ltRp767
sg59
VDONE
p768
sg61
F1547039527.1887751
sg62
F1546945969.4662549
sg63
F1547039115.96332
sg64
VWorker(salt=847977707, workers=20, host=platform-luigi-02, username=luigi, pid=4379)
p769
sg66
Nsg67
I01
sg68
F1547086773.630079
sg69
g57
((lp770
VDumpEvent_Event_RealAnonym_2019_01_07_None_3eef5acf63
p771
atRp772
sg73
Vnull
p773
sg75
Nsg76
g3
(g77
g5
NtRp774
(dp775
g76
g80
((ltRp776
sg82
I3600
sg83
NsbsbsVPopulateAuxTable__mnt_platform_sp_2019_01_07_cluster_ff0377c3ff
p777
g3
(g4
g5
NtRp778
(dp779
g8
VPopulateAuxTable
p780
sg10
VsessionMaker
p781
sg12
g777
sg13
F1546989355.437361
sg14
I00
sg15
g3
(g16
g5
NtRp782
(dp783
g19
(dp784
sg21
(lp785
Nag785
ag785
asbsg23
g3
(g24
g25
(I999999999
I999999999
I3600
ttRp786
sg27
I0
sg28
(dp787
Vforce
p788
VTrue
p789
sVdeploy_mode
p790
Vcluster
p791
sVdry_run
p792
VFalse
p793
sVdriver_memory
p794
V9g
p795
sVnum_executors
p796
V80
p797
sVdate_to_run
p798
V2019-01-07
p799
sVqueue
p800
Vspark
p801
sVsend_email
p802
VFalse
p803
sVentry_class
p804
Vplatform.etl.PopulateAuxTable
p805
sVjob_identifier
p806
Vclicks
p807
sVmaster
p808
Vyarn-cluster
p809
sVenv
p810
Vdev
p811
sVexecutor_memory
p812
V4500m
p813
sVapp
p814
V/mnt/platform-spark/target/scala-2.11/platform-spark-assembly-0.1.jar
p815
sVevent
p816
Vclicks
p817
sVspark_submit
p818
V/usr/hdp/2.6.5.0-292/spark2/bin/spark-submit
p819
ssg52
Nsg53
Nsg54
(dp820
sg56
g57
((ltRp821
sg59
g364
sg61
F1546989393.57074
sg62
F1546945959.47401
sg63
F1546986579.681278
sg64
VWorker(salt=612279892, workers=20, host=platform-luigi-02, username=luigi, pid=29555)
p822
sg66
Nsg67
I01
sg68
F1547086773.6300831
sg69
g57
((lp823
VSessionMaker__mnt_platform_sp_2019_01_07_cluster_6badb8f9d4
p824
atRp825
sg73
Vnull
p826
sg75
Nsg76
g3
(g77
g5
NtRp827
(dp828
g76
g80
((lp829
F1546988455.43734
atRp830
sg82
I3600
sg83
F1546988455.43734
sbsbsVHDFSToS3_2019_01_07_None_False_744f44ba04
p831
g3
(g4
g5
NtRp832
(dp833
g8
VHDFSToS3
p834
sg10
VdumpMergerHDFSToS3
p835
sg12
g831
sg13
Nsg14
I00
sg15
g3
(g16
g5
NtRp836
(dp837
g19
(dp838
sg21
(lp839
Nag839
ag839
asbsg23
g3
(g24
g25
(I999999999
I999999999
I3600
ttRp840
sg27
I0
sg28
(dp841
Vsrc
p842
Vs3n://chaordic-dumps/hourly/busca-searchapiclick/2019/01/07/*/*/*.*
p843
sVpartition
p844
V${apiKey}/${apiKey}_
p845
sVforce
p846
VTrue
p847
sVdry_run
p848
VFalse
p849
sVtopic_virginia
p850
Vclicks_bbi
p851
sVevent
p852
Vbusca-searchapiclick
p853
sVsend_email
p854
VFalse
p855
sVdirectory_to_execute
p856
VNone
p857
sVenv
p858
Vdev
p859
sVdump_destination
p860
Vdumps_daily
p861
sVdate_to_run
p862
V2019/01/07
p863
ssg52
Nsg53
Nsg54
(dp864
sg56
g57
((ltRp865
sg59
VDONE
p866
sg61
F1547036705.2961321
sg62
F1546945954.1229911
sg63
F1547036487.6044159
sg64
VWorker(salt=847977707, workers=20, host=platform-luigi-02, username=luigi, pid=4379)
p867
sg66
Nsg67
I01
sg68
F1547086773.6300881
sg69
g57
((lp868
VDumpMerger__mnt_platform_du_2019_01_07_False_008c8d9149
p869
atRp870
sg73
Vnull
p871
sg75
Nsg76
g3
(g77
g5
NtRp872
(dp873
g76
g80
((ltRp874
sg82
I3600
sg83
NsbsbsVDumpToHive__mnt_platform_sp_2019_01_07_cluster_0555c31bbe
p875
g3
(g4
g5
NtRp876
(dp877
g8
VDumpToHive
p878
sg10
VdumpToHive
p879
sg12
g875
sg13
Nsg14
I00
sg15
g3
(g16
g5
NtRp880
(dp881
g19
(dp882
sg21
(lp883
Nag883
ag883
asbsg23
g3
(g24
g25
(I999999999
I999999999
I3600
ttRp884
sg27
I0
sg28
(dp885
Vforce
p886
VTrue
p887
sVenv
p888
Vdev
p889
sVdry_run
p890
VFalse
p891
sVdriver_memory
p892
V9g
p893
sVnum_executors
p894
V80
p895
sVpartition_by
p896
Vdate
p897
sVdate_to_run
p898
V2019-01-07
p899
sVqueue
p900
Vspark
p901
sVsend_email
p902
VFalse
p903
sVjob_identifier
p904
VviewRecLog
p905
sVmaster
p906
Vyarn-cluster
p907
sVdeploy_mode
p908
Vcluster
p909
sVexecutor_memory
p910
V4500m
p911
sVapp
p912
V/mnt/platform-spark/target/scala-2.11/platform-spark-assembly-0.1.jar
p913
sVevent
p914
VviewRecLog
p915
sVspark_submit
p916
V/usr/hdp/2.6.5.0-292/spark2/bin/spark-submit
p917
ssg52
Nsg53
Nsg54
(dp918
sg56
g57
((ltRp919
sg59
VDONE
p920
sg61
F1547043466.4356771
sg62
F1546945969.1976559
sg63
F1547036159.619401
sg64
VWorker(salt=847977707, workers=20, host=platform-luigi-02, username=luigi, pid=4379)
p921
sg66
Nsg67
I01
sg68
F1547086773.6300931
sg69
g57
((ltRp922
sg73
Vnull
p923
sg75
Nsg76
g3
(g77
g5
NtRp924
(dp925
g76
g80
((ltRp926
sg82
I3600
sg83
NsbsbsVSessionMaker__mnt_platform_sp_2019_01_07_cluster_6badb8f9d4
p927
g3
(g4
g5
NtRp928
(dp929
g8
VSessionMaker
p930
sg10
VsessionMaker
p931
sg12
g927
sg13
Nsg14
I00
sg15
g3
(g16
g5
NtRp932
(dp933
g19
(dp934
sg21
(lp935
Nag935
ag935
asbsg23
g3
(g24
g25
(I999999999
I999999999
I3600
ttRp936
sg27
I0
sg28
(dp937
Vforce
p938
VTrue
p939
sVdeploy_mode
p940
Vcluster
p941
sVdry_run
p942
VFalse
p943
sVdriver_memory
p944
V9g
p945
sVnum_executors
p946
V80
p947
sVqueue
p948
Vspark
p949
sVsend_email
p950
VFalse
p951
sVentry_class
p952
Vplatform.etl.SessionMaker
p953
sVjob_identifier
p954
Vsession
p955
sVmaster
p956
Vyarn-cluster
p957
sVenv
p958
Vdev
p959
sVexecutor_memory
p960
V4500m
p961
sVapp
p962
V/mnt/platform-spark/target/scala-2.11/platform-spark-assembly-0.1.jar
p963
sVdate_to_run
p964
V2019-01-07
p965
sVspark_submit
p966
V/usr/hdp/2.6.5.0-292/spark2/bin/spark-submit
p967
ssg52
Nsg53
Nsg54
(dp968
sg56
g57
((ltRp969
sg59
VPENDING
p970
sg61
F1547036142.236908
sg62
F1546945952.711314
sg63
F1546984333.0932519
sg64
VWorker(salt=612279892, workers=20, host=platform-luigi-02, username=luigi, pid=29555)
p971
sg66
Nsg67
I01
sg68
F1547086773.6300991
sg69
g57
((lp972
VRunDumpsKafka___2019_01_07_False_a6e26c3252
p973
aVRunDumpsCassandra___2019_01_07_False_cd513b828f
p974
atRp975
sg73
Vnull
p976
sg75
Nsg76
g3
(g77
g5
NtRp977
(dp978
g76
g80
((ltRp979
sg82
I3600
sg83
NsbsbsVUpdateHive_None_2019_01_07_None_8783de4e9e
p980
g3
(g4
g5
NtRp981
(dp982
g8
VUpdateHive
p983
sg10
VplatformDumps
p984
sg12
g980
sg13
Nsg14
I00
sg15
g3
(g16
g5
NtRp985
(dp986
g19
(dp987
sg21
(lp988
Nag988
ag988
asbsg23
g3
(g24
g25
(I999999999
I999999999
I3600
ttRp989
sg27
I0
sg28
(dp990
Vcolumn_family
p991
VNone
p992
sVforce
p993
VTrue
p994
sVdry_run
p995
VFalse
p996
sVevent
p997
Vmailclicks
p998
sVsend_email
p999
VFalse
p1000
sVdirectory_to_execute
p1001
VNone
p1002
sVenv
p1003
Vdev
p1004
sVdump_type
p1005
Vdump_revent
p1006
sVhive_table
p1007
Vmailclicks
p1008
sVdate_to_run
p1009
V2019-01-07
p1010
ssg52
Nsg53
Nsg54
(dp1011
sg56
g57
((ltRp1012
sg59
VDONE
p1013
sg61
F1547040082.8608029
sg62
F1546945966.141788
sg63
F1547039985.184608
sg64
VWorker(salt=847977707, workers=20, host=platform-luigi-02, username=luigi, pid=4379)
p1014
sg66
Nsg67
I01
sg68
F1547086773.6301031
sg69
g57
((lp1015
VDumpRevents_2019_01_07_None_False_f21d2770fb
p1016
atRp1017
sg73
Vnull
p1018
sg75
Nsg76
g3
(g77
g5
NtRp1019
(dp1020
g76
g80
((ltRp1021
sg82
I3600
sg83
NsbsbsVRunPlatformSessionMaker______Event_Transac_2019_01_07_6edae33f5c
p1022
g3
(g4
g5
NtRp1023
(dp1024
g8
VRunPlatformSessionMaker
p1025
sg10
VsessionMaker
p1026
sg12
g1022
sg13
Nsg14
I00
sg15
g3
(g16
g5
NtRp1027
(dp1028
g19
(dp1029
sg21
(lp1030
Nag1030
ag1030
asbsg23
g3
(g24
g25
(I999999999
I999999999
I3600
ttRp1031
sg27
I0
sg28
(dp1032
Vapikey
p1033
V*
sVforce
p1034
VTrue
p1035
sVdry_run
p1036
VFalse
p1037
sVuse_hive
p1038
VFalse
p1039
sVcas_events
p1040
V[["Event_Transaction", "buyOrders", "buyOrders", "dump_event"], ["Event_ClickLog", "clicks", "clicks", "dump_event"]]
p1041
sVsend_email
p1042
VFalse
p1043
sVenv
p1044
Vdev
p1045
sVevents
p1046
V[]
p1047
sVdate_to_run
p1048
V2019-01-07
p1049
sVkafka_events
p1050
V[["views", "view", "dumps_daily"], ["pageViews", "pageViews", "dumps_daily"]]
p1051
ssg52
Nsg53
Nsg54
(dp1052
sg56
g57
((ltRp1053
sg59
VPENDING
p1054
sg61
F1546980154.4596341
sg62
F1546945968.6571839
sg63
F1546956059.5661831
sg64
VWorker(salt=023470692, workers=20, host=platform-luigi-02, username=luigi, pid=22220)
p1055
sg66
Nsg67
I01
sg68
F1547086773.6301081
sg69
g57
((lp1056
VUpdateHiveInsertOnly_2019_01_07_None_False_ab00a58267
p1057
aVUpdateHiveInsertOnly_2019_01_07_None_False_e50d2d0866
p1058
aVUpdateHiveInsertOnly_2019_01_07_None_False_3a93d593f6
p1059
aVUpdateHiveInsertOnly_2019_01_07_None_False_7b2fd7a88a
p1060
atRp1061
sg73
Vnull
p1062
sg75
Nsg76
g3
(g77
g5
NtRp1063
(dp1064
g76
g80
((ltRp1065
sg82
I3600
sg83
NsbsbsVUpdateHive_products_2019_01_07_None_3f843bfac5
p1066
g3
(g4
g5
NtRp1067
(dp1068
g8
VUpdateHive
p1069
sg10
VplatformDumps
p1070
sg12
g1066
sg13
Nsg14
I00
sg15
g3
(g16
g5
NtRp1071
(dp1072
g19
(dp1073
sg21
(lp1074
Nag1074
ag1074
asbsg23
g3
(g24
g25
(I999999999
I999999999
I3600
ttRp1075
sg27
I0
sg28
(dp1076
Vcolumn_family
p1077
Vproducts
p1078
sVforce
p1079
VTrue
p1080
sVdry_run
p1081
VFalse
p1082
sVevent
p1083
Vproducts
p1084
sVsend_email
p1085
VFalse
p1086
sVdirectory_to_execute
p1087
VNone
p1088
sVenv
p1089
Vdev
p1090
sVdump_type
p1091
Vdump_other
p1092
sVhive_table
p1093
Vproducts
p1094
sVdate_to_run
p1095
V2019-01-07
p1096
ssg52
Nsg53
Nsg54
(dp1097
sg56
g57
((ltRp1098
sg59
VDONE
p1099
sg61
F1547043420.2936959
sg62
F1546945966.1417789
sg63
F1547036598.6097641
sg64
VWorker(salt=847977707, workers=20, host=platform-luigi-02, username=luigi, pid=4379)
p1100
sg66
Nsg67
I01
sg68
F1547086773.6301129
sg69
g57
((lp1101
VDistcpLatestToProduct_2019_01_07_None_False_741eafcd75
p1102
atRp1103
sg73
Vnull
p1104
sg75
Nsg76
g3
(g77
g5
NtRp1105
(dp1106
g76
g80
((ltRp1107
sg82
I3600
sg83
NsbsbsVBaseMetricJob__mnt_platform_sp_2019_01_07_cluster_c1b2532dde
p1108
g3
(g4
g5
NtRp1109
(dp1110
g8
VBaseMetricJob
p1111
sg10
VbaseMetrics
p1112
sg12
g1108
sg13
F1547037033.606683
sg14
I00
sg15
g3
(g16
g5
NtRp1113
(dp1114
g19
(dp1115
sg21
(lp1116
Nag1116
ag1116
asbsg23
g3
(g24
g25
(I999999999
I999999999
I3600
ttRp1117
sg27
I0
sg28
(dp1118
Vforce
p1119
VTrue
p1120
sVenv
p1121
Vdev
p1122
sVdry_run
p1123
VFalse
p1124
sVdriver_memory
p1125
V9g
p1126
sVnum_executors
p1127
V65
p1128
sVqueue
p1129
Vspark
p1130
sVsend_email
p1131
VFalse
p1132
sVentry_class
p1133
Vplatform.etl.BaseMetrics
p1134
sVjob_identifier
p1135
Vsession-events
p1136
sVmaster
p1137
Vyarn-cluster
p1138
sVdeploy_mode
p1139
Vcluster
p1140
sVexecutor_memory
p1141
V4500m
p1142
sVapp
p1143
V/mnt/platform-spark/target/scala-2.11/platform-spark-assembly-0.1.jar
p1144
sVdate_to_run
p1145
V2019-01-07
p1146
sVspark_submit
p1147
V/usr/hdp/2.6.5.0-292/spark2/bin/spark-submit
p1148
ssg52
Nsg53
Nsg54
(dp1149
sg56
g57
((ltRp1150
sg59
VPENDING
p1151
sg61
F1547036144.2533939
sg62
F1546945952.5162799
sg63
F1546986578.129087
sg64
Nsg66
Nsg67
I01
sg68
F1547086773.6301191
sg69
g57
((lp1152
VSessionMaker__mnt_platform_sp_2019_01_07_cluster_6badb8f9d4
p1153
atRp1154
sg73
Vnull
p1155
sg75
Nsg76
g3
(g77
g5
NtRp1156
(dp1157
g76
g80
((lp1158
F1547036133.6066689
atRp1159
sg82
I3600
sg83
F1547036133.6066689
sbsbsVRunDumpsCassandra___2019_01_07_False_53ca3ba4a2
p1160
g3
(g4
g5
NtRp1161
(dp1162
g8
VRunDumpsCassandra
p1163
sg10
VplatformDumps
p1164
sg12
g1160
sg13
Nsg14
I00
sg15
g3
(g16
g5
NtRp1165
(dp1166
g19
(dp1167
sg21
(lp1168
Nag1168
ag1168
asbsg23
g3
(g24
g25
(I999999999
I999999999
I3600
ttRp1169
sg27
I0
sg28
(dp1170
Vapikey
p1171
V*
sVforce
p1172
VTrue
p1173
sVdry_run
p1174
VFalse
p1175
sVuse_hive
p1176
VTrue
p1177
sVevents
p1178
V[]
p1179
sVsend_email
p1180
VFalse
p1181
sVenv
p1182
Vdev
p1183
sVdate_to_run
p1184
V2019/01/07
p1185
ssg52
Nsg53
Nsg54
(dp1186
sg56
g57
((ltRp1187
sg59
VDONE
p1188
sg61
F1547040539.7109749
sg62
F1546945952.1340921
sg63
F1547040539.1857469
sg64
VWorker(salt=847977707, workers=20, host=platform-luigi-02, username=luigi, pid=4379)
p1189
sg66
Nsg67
I01
sg68
F1547086773.6301241
sg69
g57
((lp1190
VUpdateHive_EventView_2019_01_07_None_0525eed208
p1191
aVUpdateHive_Event_ProductCre_2019_01_07_None_ec92edd556
p1192
atRp1193
sg73
Vnull
p1194
sg75
Nsg76
g3
(g77
g5
NtRp1195
(dp1196
g76
g80
((ltRp1197
sg82
I3600
sg83
NsbsbsVDumpEvent_Event_RealAnonym_2019_01_07_None_3eef5acf63
p1198
g3
(g4
g5
NtRp1199
(dp1200
g8
VDumpEvent
p1201
sg10
VplatformDumps
p1202
sg12
g1198
sg13
F1546983551.9488721
sg14
I00
sg15
g3
(g16
g5
NtRp1203
(dp1204
g19
(dp1205
sg21
(lp1206
Nag1206
ag1206
asbsg23
g3
(g24
g25
(I999999999
I999999999
I3600
ttRp1207
sg27
I5
sg28
(dp1208
Vcolumn_family
p1209
VEvent_RealAnonymous
p1210
sVforce
p1211
VTrue
p1212
sVdry_run
p1213
VFalse
p1214
sVevent
p1215
VrealAnonymous
p1216
sVsend_email
p1217
VFalse
p1218
sVdirectory_to_execute
p1219
VNone
p1220
sVenv
p1221
Vdev
p1222
sVextra_opts
p1223
V('-Dmapreduce.map.memory.mb=512', '-Dmapreduce.reduce.memory.mb=1024', '-Dmapreduce.map.java.opts=-Xmx456m', '-Dmapreduce.reduce.java.opts=-Xmx819m')
p1224
sVdate_to_run
p1225
V2019-01-07
p1226
sVopts
p1227
V-ce
p1228
ssg52
Nsg53
Nsg54
(dp1229
Vmax_parallel_cassandra_tasks
p1230
I1
ssg56
g57
((ltRp1231
sg59
VDONE
p1232
sg61
F1547039115.9587009
sg62
F1546945969.662189
sg63
F1547038193.4803541
sg64
VWorker(salt=847977707, workers=20, host=platform-luigi-02, username=luigi, pid=4379)
p1233
sg66
Nsg67
I01
sg68
F1547086773.6301291
sg69
g57
((lp1234
VUpdateClientsLists_2019_01_08_None_False_0f36255ac8
p1235
atRp1236
sg73
Vnull
p1237
sg75
Nsg76
g3
(g77
g5
NtRp1238
(dp1239
g76
g80
((lp1240
F1546982651.9488511
atRp1241
sg82
I3600
sg83
F1546982651.9488511
sbsbsVDumpMerger__mnt_platform_du_2019_01_07_False_c9b23dd9fa
p1242
g3
(g4
g5
NtRp1243
(dp1244
g8
VDumpMerger
p1245
sg10
VdumpMergerHDFSToS3
p1246
sg12
g1242
sg13
Nsg14
I00
sg15
g3
(g16
g5
NtRp1247
(dp1248
g19
(dp1249
sg21
(lp1250
Nag1250
ag1250
asbsg23
g3
(g24
g25
(I999999999
I999999999
I3600
ttRp1251
sg27
I0
sg28
(dp1252
Vsrc
p1253
Vs3n://chaordic-dumps/hourly/view/2019/01/07/*/*/*.*
p1254
sVforce
p1255
VTrue
p1256
sVdry_run
p1257
VFalse
p1258
sVdst
p1259
Vuser/luigi/dev/daily/view/2019/01/07
p1260
sVpartition
p1261
V${apiKey}/${apiKey}_
p1262
sVsend_email
p1263
VFalse
p1264
sVentry_class
p1265
Vcom.chaordicsystems.platform.dump.util.DumpPartitioner
p1266
sVjob_identifier
p1267
Vview
p1268
sVenv
p1269
Vdev
p1270
sVapp
p1271
V/mnt/platform-dumps-spark/target/scala-2.10/platform-spark-dumps-assembly-0.2.jar
p1272
sVdate_to_run
p1273
V2019/01/07
p1274
ssg52
Nsg53
Nsg54
(dp1275
sg56
g57
((ltRp1276
sg59
VDONE
p1277
sg61
F1547037354.2401791
sg62
F1546945955.1029699
sg63
F1547036158.110229
sg64
VWorker(salt=847977707, workers=20, host=platform-luigi-02, username=luigi, pid=4379)
p1278
sg66
Nsg67
I01
sg68
F1547086773.6301341
sg69
g57
((ltRp1279
sg73
Vnull
p1280
sg75
Nsg76
g3
(g77
g5
NtRp1281
(dp1282
g76
g80
((ltRp1283
sg82
I3600
sg83
NsbsbsVUpdateHiveInsertOnly_2019_01_07_None_False_ab00a58267
p1284
g3
(g4
g5
NtRp1285
(dp1286
g8
VUpdateHiveInsertOnly
p1287
sg10
VsessionMaker
p1288
sg12
g1284
sg13
Nsg14
I00
sg15
g3
(g16
g5
NtRp1289
(dp1290
g19
(dp1291
sg21
(lp1292
Nag1292
ag1292
asbsg23
g3
(g24
g25
(I999999999
I999999999
I3600
ttRp1293
sg27
I0
sg28
(dp1294
Vforce
p1295
VTrue
p1296
sVdry_run
p1297
VFalse
p1298
sVevent
p1299
Vclicks
p1300
sVsend_email
p1301
VFalse
p1302
sVdirectory_to_execute
p1303
VNone
p1304
sVenv
p1305
Vdev
p1306
sVhive_table
p1307
Vclicks
p1308
sVdate_to_run
p1309
V2019-01-07
p1310
ssg52
Nsg53
Nsg54
(dp1311
sg56
g57
((ltRp1312
sg59
VPENDING
p1313
sg61
F1546980146.6774769
sg62
F1546945958.0899041
sg63
F1546955339.4093161
sg64
VWorker(salt=023470692, workers=20, host=platform-luigi-02, username=luigi, pid=22220)
p1314
sg66
Nsg67
I01
sg68
F1547086773.6301391
sg69
g57
((lp1315
VPopulateAuxTable__mnt_platform_sp_2019_01_07_cluster_ff0377c3ff
p1316
atRp1317
sg73
Vnull
p1318
sg75
Nsg76
g3
(g77
g5
NtRp1319
(dp1320
g76
g80
((ltRp1321
sg82
I3600
sg83
NsbsbsVDumpEvent_Event_ProductCre_2019_01_07_None_be28086f23
p1322
g3
(g4
g5
NtRp1323
(dp1324
g8
VDumpEvent
p1325
sg10
VplatformDumps
p1326
sg12
g1322
sg13
F1546983638.3439381
sg14
I00
sg15
g3
(g16
g5
NtRp1327
(dp1328
g19
(dp1329
sg21
(lp1330
Nag1330
ag1330
asbsg23
g3
(g24
g25
(I999999999
I999999999
I3600
ttRp1331
sg27
I5
sg28
(dp1332
Vcolumn_family
p1333
VEvent_ProductCreated
p1334
sVforce
p1335
VTrue
p1336
sVdry_run
p1337
VFalse
p1338
sVevent
p1339
VproductCreated
p1340
sVsend_email
p1341
VFalse
p1342
sVdirectory_to_execute
p1343
VNone
p1344
sVenv
p1345
Vdev
p1346
sVextra_opts
p1347
V('-Dmapreduce.map.memory.mb=512', '-Dmapreduce.reduce.memory.mb=1024', '-Dmapreduce.map.java.opts=-Xmx456m', '-Dmapreduce.reduce.java.opts=-Xmx819m')
p1348
sVdate_to_run
p1349
V2019-01-07
p1350
sVopts
p1351
V-ce
p1352
ssg52
Nsg53
Nsg54
(dp1353
Vmax_parallel_cassandra_tasks
p1354
I1
ssg56
g57
((ltRp1355
sg59
VDONE
p1356
sg61
F1547038077.3163381
sg62
F1546945961.59811
sg63
F1547036288.241034
sg64
VWorker(salt=847977707, workers=20, host=platform-luigi-02, username=luigi, pid=4379)
p1357
sg66
Nsg67
I01
sg68
F1547086773.6301439
sg69
g57
((lp1358
VUpdateClientsLists_2019_01_08_None_False_0f36255ac8
p1359
atRp1360
sg73
Vnull
p1361
sg75
Nsg76
g3
(g77
g5
NtRp1362
(dp1363
g76
g80
((lp1364
F1546981700.5565729
aF1546982738.3439131
atRp1365
sg82
I3600
sg83
F1546947960.1754129
sbsbsVDumpToHive__mnt_platform_sp_2019_01_07_cluster_67d92d2ff9
p1366
g3
(g4
g5
NtRp1367
(dp1368
g8
VDumpToHive
p1369
sg10
VdumpToHive
p1370
sg12
g1366
sg13
Nsg14
I00
sg15
g3
(g16
g5
NtRp1371
(dp1372
g19
(dp1373
sg21
(lp1374
Nag1374
ag1374
asbsg23
g3
(g24
g25
(I999999999
I999999999
I3600
ttRp1375
sg27
I0
sg28
(dp1376
Vforce
p1377
VTrue
p1378
sVenv
p1379
Vdev
p1380
sVdry_run
p1381
VFalse
p1382
sVdriver_memory
p1383
V9g
p1384
sVnum_executors
p1385
V80
p1386
sVpartition_by
p1387
Vdate
p1388
sVdate_to_run
p1389
V2019-01-07
p1390
sVqueue
p1391
Vspark
p1392
sVsend_email
p1393
VFalse
p1394
sVjob_identifier
p1395
Vbanner-slide-view
p1396
sVmaster
p1397
Vyarn-cluster
p1398
sVdeploy_mode
p1399
Vcluster
p1400
sVexecutor_memory
p1401
V4500m
p1402
sVapp
p1403
V/mnt/platform-spark/target/scala-2.11/platform-spark-assembly-0.1.jar
p1404
sVevent
p1405
Vbanner-slide-view
p1406
sVspark_submit
p1407
V/usr/hdp/2.6.5.0-292/spark2/bin/spark-submit
p1408
ssg52
Nsg53
Nsg54
(dp1409
sg56
g57
((ltRp1410
sg59
VDONE
p1411
sg61
F1547036798.643842
sg62
F1546945969.1976211
sg63
F1547036158.7780221
sg64
VWorker(salt=847977707, workers=20, host=platform-luigi-02, username=luigi, pid=4379)
p1412
sg66
Nsg67
I01
sg68
F1547086773.6301489
sg69
g57
((ltRp1413
sg73
Vnull
p1414
sg75
Nsg76
g3
(g77
g5
NtRp1415
(dp1416
g76
g80
((ltRp1417
sg82
I3600
sg83
NsbsbsVHDFSToS3_2019_01_07_None_False_ef03a0b6e0
p1418
g3
(g4
g5
NtRp1419
(dp1420
g8
VHDFSToS3
p1421
sg10
VdumpMergerHDFSToS3
p1422
sg12
g1418
sg13
Nsg14
I00
sg15
g3
(g16
g5
NtRp1423
(dp1424
g19
(dp1425
sg21
(lp1426
Nag1426
ag1426
asbsg23
g3
(g24
g25
(I999999999
I999999999
I3600
ttRp1427
sg27
I0
sg28
(dp1428
Vsrc
p1429
Vs3n://chaordic-dumps/hourly/sentMail/2019/01/07/*/*/*.*
p1430
sVpartition
p1431
V${apiKey}/${apiKey}_
p1432
sVforce
p1433
VTrue
p1434
sVdry_run
p1435
VFalse
p1436
sVtopic_virginia
p1437
Vsentmails
p1438
sVevent
p1439
VsentMail
p1440
sVsend_email
p1441
VFalse
p1442
sVdirectory_to_execute
p1443
VNone
p1444
sVenv
p1445
Vdev
p1446
sVdump_destination
p1447
Vdumps_daily
p1448
sVdate_to_run
p1449
V2019/01/07
p1450
ssg52
Nsg53
Nsg54
(dp1451
sg56
g57
((ltRp1452
sg59
VDONE
p1453
sg61
F1547036801.113627
sg62
F1546945964.5693841
sg63
F1547036658.4367781
sg64
VWorker(salt=847977707, workers=20, host=platform-luigi-02, username=luigi, pid=4379)
p1454
sg66
Nsg67
I01
sg68
F1547086773.6301539
sg69
g57
((lp1455
VDumpMerger__mnt_platform_du_2019_01_07_False_a341874213
p1456
atRp1457
sg73
Vnull
p1458
sg75
Nsg76
g3
(g77
g5
NtRp1459
(dp1460
g76
g80
((ltRp1461
sg82
I3600
sg83
NsbsbsVDumpEvent_EventOptOut_2019_01_07_None_ea1b5fc3b1
p1462
g3
(g4
g5
NtRp1463
(dp1464
g8
VDumpEvent
p1465
sg10
VplatformDumps
p1466
sg12
g1462
sg13
F1547039799.3842499
sg14
I00
sg15
g3
(g16
g5
NtRp1467
(dp1468
g19
(dp1469
sg21
(lp1470
Nag1470
ag1470
asbsg23
g3
(g24
g25
(I999999999
I999999999
I3600
ttRp1471
sg27
I5
sg28
(dp1472
Vcolumn_family
p1473
VEventOptOut
p1474
sVforce
p1475
VTrue
p1476
sVdry_run
p1477
VFalse
p1478
sVevent
p1479
Voptouts
p1480
sVsend_email
p1481
VFalse
p1482
sVdirectory_to_execute
p1483
VNone
p1484
sVenv
p1485
Vdev
p1486
sVextra_opts
p1487
V('-Dmapreduce.map.memory.mb=512', '-Dmapreduce.reduce.memory.mb=1024', '-Dmapreduce.map.java.opts=-Xmx456m', '-Dmapreduce.reduce.java.opts=-Xmx819m')
p1488
sVdate_to_run
p1489
V2019-01-07
p1490
sVopts
p1491
V-ce
p1492
ssg52
Nsg53
Nsg54
(dp1493
Vmax_parallel_cassandra_tasks
p1494
I1
ssg56
g57
((ltRp1495
sg59
VDONE
p1496
sg61
F1547040085.8649139
sg62
F1546945966.64851
sg63
F1547039842.022862
sg64
VWorker(salt=847977707, workers=20, host=platform-luigi-02, username=luigi, pid=4379)
p1497
sg66
Nsg67
I01
sg68
F1547086773.6301589
sg69
g57
((lp1498
VUpdateClientsLists_2019_01_08_None_False_0f36255ac8
p1499
atRp1500
sg73
Vnull
p1501
sg75
Nsg76
g3
(g77
g5
NtRp1502
(dp1503
g76
g80
((lp1504
F1547038899.3842289
atRp1505
sg82
I3600
sg83
F1546982629.1539121
sbsbsVDumpRevents_2019_01_07_None_False_f21d2770fb
p1506
g3
(g4
g5
NtRp1507
(dp1508
g8
VDumpRevents
p1509
sg10
VplatformDumps
p1510
sg12
g1506
sg13
Nsg14
I00
sg15
g3
(g16
g5
NtRp1511
(dp1512
g19
(dp1513
sg21
(lp1514
Nag1514
ag1514
asbsg23
g3
(g24
g25
(I999999999
I999999999
I3600
ttRp1515
sg27
I3
sg28
(dp1516
Vforce
p1517
VTrue
p1518
sVdry_run
p1519
VFalse
p1520
sVevent
p1521
Vrevents
p1522
sVsend_email
p1523
VFalse
p1524
sVdirectory_to_execute
p1525
VNone
p1526
sVenv
p1527
Vdev
p1528
sVextra_opts
p1529
V('-Dmapreduce.map.memory.mb=512', '-Dmapreduce.reduce.memory.mb=1024', '-Dmapreduce.map.java.opts=-Xmx456m', '-Dmapreduce.reduce.java.opts=-Xmx819m')
p1530
sVdate_to_run
p1531
V2019-01-07
p1532
sVopts
p1533
V-cek
p1534
ssg52
Nsg53
Nsg54
(dp1535
Vmax_parallel_cassandra_tasks
p1536
I1
ssg56
g57
((ltRp1537
sg59
VDONE
p1538
sg61
F1547039985.1155591
sg62
F1546945966.3338649
sg63
F1547038507.5089991
sg64
VWorker(salt=847977707, workers=20, host=platform-luigi-02, username=luigi, pid=4379)
p1539
sg66
Nsg67
I01
sg68
F1547086773.6301639
sg69
g57
((lp1540
VUpdateClientsLists_2019_01_08_None_False_0f36255ac8
p1541
atRp1542
sg73
Vnull
p1543
sg75
Nsg76
g3
(g77
g5
NtRp1544
(dp1545
g76
g80
((ltRp1546
sg82
I3600
sg83
NsbsbsVMailETL_2019_01_07_None_False_21987508e1
p1547
g3
(g4
g5
NtRp1548
(dp1549
g8
VMailETL
p1550
sg10
Vmail
p1551
sg12
g1547
sg13
Nsg14
I00
sg15
g3
(g16
g5
NtRp1552
(dp1553
g19
(dp1554
sg21
(lp1555
Nag1555
ag1555
asbsg23
g3
(g24
g25
(I999999999
I999999999
I3600
ttRp1556
sg27
I0
sg28
(dp1557
Vstep_to_execute
p1558
V-L
p1559
sVforce
p1560
VTrue
p1561
sVmail_client
p1562
V
sVdry_run
p1563
VFalse
p1564
sVmail_jobs
p1565
V
sVonly_plat_flow
p1566
VFalse
p1567
sVsend_email
p1568
VFalse
p1569
sVdirectory_to_execute
p1570
VNone
p1571
sVenv
p1572
Vdev
p1573
sVdate_to_run
p1574
V2019-01-07
p1575
ssg52
Nsg53
Nsg54
(dp1576
sg56
g57
((ltRp1577
sg59
VPENDING
p1578
sg61
F1546980148.828862
sg62
F1546980148.669889
sg63
Nsg64
Nsg66
Nsg67
I01
sg68
F1547086773.6301689
sg69
g57
((lp1579
VMailETL_2019_01_07_None_False_5e469977d9
p1580
atRp1581
sg73
Nsg75
Nsg76
g3
(g77
g5
NtRp1582
(dp1583
g76
g80
((ltRp1584
sg82
I3600
sg83
NsbsbsVUpdateHiveInsertOnly_2019_01_07_None_False_6f6f0ab46f
p1585
g3
(g4
g5
NtRp1586
(dp1587
g8
VUpdateHiveInsertOnly
p1588
sg10
VsessionMaker
p1589
sg12
g1585
sg13
Nsg14
I00
sg15
g3
(g16
g5
NtRp1590
(dp1591
g19
(dp1592
sg21
(lp1593
Nag1593
ag1593
asbsg23
g3
(g24
g25
(I999999999
I999999999
I3600
ttRp1594
sg27
I0
sg28
(dp1595
Vforce
p1596
VTrue
p1597
sVdry_run
p1598
VFalse
p1599
sVevent
p1600
Vbusca-searchapiclick
p1601
sVsend_email
p1602
VFalse
p1603
sVdirectory_to_execute
p1604
VNone
p1605
sVenv
p1606
Vdev
p1607
sVhive_table
p1608
Vclicks_bbi
p1609
sVdate_to_run
p1610
V2019-01-07
p1611
ssg52
Nsg53
Nsg54
(dp1612
sg56
g57
((ltRp1613
sg59
VPENDING
p1614
sg61
F1546980145.42503
sg62
F1546945958.089947
sg63
F1546955209.384989
sg64
VWorker(salt=023470692, workers=20, host=platform-luigi-02, username=luigi, pid=22220)
p1615
sg66
Nsg67
I01
sg68
F1547086773.6301751
sg69
g57
((lp1616
VPopulateAuxTable__mnt_platform_sp_2019_01_07_cluster_5c7ced3ec4
p1617
atRp1618
sg73
Vnull
p1619
sg75
Nsg76
g3
(g77
g5
NtRp1620
(dp1621
g76
g80
((ltRp1622
sg82
I3600
sg83
NsbsbsVUpdateHive_EventOptOut_2019_01_07_None_6f0034c220
p1623
g3
(g4
g5
NtRp1624
(dp1625
g8
VUpdateHive
p1626
sg10
VplatformDumps
p1627
sg12
g1623
sg13
Nsg14
I00
sg15
g3
(g16
g5
NtRp1628
(dp1629
g19
(dp1630
sg21
(lp1631
Nag1631
ag1631
asbsg23
g3
(g24
g25
(I999999999
I999999999
I3600
ttRp1632
sg27
I0
sg28
(dp1633
Vcolumn_family
p1634
VEventOptOut
p1635
sVforce
p1636
VTrue
p1637
sVdry_run
p1638
VFalse
p1639
sVevent
p1640
Voptouts
p1641
sVsend_email
p1642
VFalse
p1643
sVdirectory_to_execute
p1644
VNone
p1645
sVenv
p1646
Vdev
p1647
sVdump_type
p1648
Vdump_event
p1649
sVhive_table
p1650
Voptouts
p1651
sVdate_to_run
p1652
V2019-01-07
p1653
ssg52
Nsg53
Nsg54
(dp1654
sg56
g57
((ltRp1655
sg59
VDONE
p1656
sg61
F1547040156.4317219
sg62
F1546945966.1417699
sg63
F1547040085.8690469
sg64
VWorker(salt=847977707, workers=20, host=platform-luigi-02, username=luigi, pid=4379)
p1657
sg66
Nsg67
I01
sg68
F1547086773.6301789
sg69
g57
((lp1658
VDumpEvent_EventOptOut_2019_01_07_None_ea1b5fc3b1
p1659
atRp1660
sg73
Vnull
p1661
sg75
Nsg76
g3
(g77
g5
NtRp1662
(dp1663
g76
g80
((ltRp1664
sg82
I3600
sg83
NsbsbsVRunDumpsCassandra___2019_01_07_False_cd513b828f
p1665
g3
(g4
g5
NtRp1666
(dp1667
g8
VRunDumpsCassandra
p1668
sg10
VplatformDumps
p1669
sg12
g1665
sg13
Nsg14
I00
sg15
g3
(g16
g5
NtRp1670
(dp1671
g19
(dp1672
sg21
(lp1673
Nag1673
ag1673
asbsg23
g3
(g24
g25
(I999999999
I999999999
I3600
ttRp1674
sg27
I0
sg28
(dp1675
Vapikey
p1676
V*
sVforce
p1677
VTrue
p1678
sVdry_run
p1679
VFalse
p1680
sVuse_hive
p1681
VFalse
p1682
sVevents
p1683
V[["Event_Transaction", "buyOrders", "buyOrders", "dump_event"], ["Event_ClickLog", "clicks", "clicks", "dump_event"], ["Event_ViewCart", "shoppingCarts", "shoppingCarts", "dump_event_using_hdfs"]]
p1684
sVsend_email
p1685
VFalse
p1686
sVenv
p1687
Vdev
p1688
sVdate_to_run
p1689
V2019-01-07
p1690
ssg52
Nsg53
Nsg54
(dp1691
sg56
g57
((ltRp1692
sg59
VPENDING
p1693
sg61
F1547036143.8148241
sg62
F1546945953.697624
sg63
F1546984332.51424
sg64
VWorker(salt=612279892, workers=20, host=platform-luigi-02, username=luigi, pid=29555)
p1694
sg66
Nsg67
I01
sg68
F1547086773.6301839
sg69
g57
((lp1695
VDumpEvent_Event_Transactio_2019_01_07_None_cbbb607fe1
p1696
aVDumpEventUsingHDFS_Event_ViewCart_2019_01_07_None_3adaa66d53
p1697
aVDumpEvent_Event_ClickLog_2019_01_07_None_56a0727355
p1698
atRp1699
sg73
Vnull
p1700
sg75
Nsg76
g3
(g77
g5
NtRp1701
(dp1702
g76
g80
((ltRp1703
sg82
I3600
sg83
NsbsbsVRunDumpsKafka___2019_01_07_False_a6e26c3252
p1704
g3
(g4
g5
NtRp1705
(dp1706
g8
VRunDumpsKafka
p1707
sg10
VdumpMergerHDFSToS3
p1708
sg12
g1704
sg13
Nsg14
I00
sg15
g3
(g16
g5
NtRp1709
(dp1710
g19
(dp1711
sg21
(lp1712
Nag1712
ag1712
asbsg23
g3
(g24
g25
(I999999999
I999999999
I3600
ttRp1713
sg27
I0
sg28
(dp1714
Vapikey
p1715
V*
sVforce
p1716
VTrue
p1717
sVdry_run
p1718
VFalse
p1719
sVuse_hive
p1720
VFalse
p1721
sVevents
p1722
V[["views", "view", "dumps_daily"], ["pageViews", "pageViews", "dumps_daily"], ["search_view", "search-search", "dumps_daily"], ["clicks_bbi", "busca-searchapiclick", "dumps_daily"]]
p1723
sVsend_email
p1724
VFalse
p1725
sVenv
p1726
Vdev
p1727
sVdate_to_run
p1728
V2019/01/07
p1729
ssg52
Nsg53
Nsg54
(dp1730
sg56
g57
((ltRp1731
sg59
VDONE
p1732
sg61
F1547038626.3010731
sg62
F1546945953.6976089
sg63
F1547038625.8041401
sg64
VWorker(salt=847977707, workers=20, host=platform-luigi-02, username=luigi, pid=4379)
p1733
sg66
Nsg67
I01
sg68
F1547086773.6301899
sg69
g57
((lp1734
VHDFSToS3_2019_01_07_None_False_ffee976cf5
p1735
aVHDFSToS3_2019_01_07_None_False_744f44ba04
p1736
aVHDFSToS3_2019_01_07_None_False_966665c2ab
p1737
aVHDFSToS3_2019_01_07_None_False_d36f4a6580
p1738
atRp1739
sg73
Vnull
p1740
sg75
Nsg76
g3
(g77
g5
NtRp1741
(dp1742
g76
g80
((ltRp1743
sg82
I3600
sg83
NsbsbsVRunPlatformSessionMaker______2019_01_07_acf1caf2f8
p1744
g3
(g4
g5
NtRp1745
(dp1746
g8
VRunPlatformSessionMaker
p1747
sg10
VsessionMaker
p1748
sg12
g1744
sg13
Nsg14
I00
sg15
g3
(g16
g5
NtRp1749
(dp1750
g19
(dp1751
sg21
(lp1752
Nag1752
ag1752
asbsg23
g3
(g24
g25
(I999999999
I999999999
I3600
ttRp1753
sg27
I0
sg28
(dp1754
Vapikey
p1755
V*
sVforce
p1756
VTrue
p1757
sVdry_run
p1758
VFalse
p1759
sVuse_hive
p1760
VFalse
p1761
sVcas_events
p1762
V[]
p1763
sVsend_email
p1764
VFalse
p1765
sVenv
p1766
Vdev
p1767
sVevents
p1768
V[]
p1769
sVdate_to_run
p1770
V2019/01/07
p1771
sVkafka_events
p1772
V[]
p1773
ssg52
Nsg53
Nsg54
(dp1774
sg56
g57
((ltRp1775
sg59
VPENDING
p1776
sg61
F1546980145.212815
sg62
F1546945952.134109
sg63
F1546956059.4770319
sg64
VWorker(salt=023470692, workers=20, host=platform-luigi-02, username=luigi, pid=22220)
p1777
sg66
Nsg67
I01
sg68
F1547086773.6301949
sg69
g57
((lp1778
VUpdateHiveInsertOnly_2019_01_07_None_False_ab00a58267
p1779
aVUpdateHiveInsertOnly_2019_01_07_None_False_3a93d593f6
p1780
aVUpdateHiveInsertOnly_2019_01_07_None_False_69907dc1da
p1781
aVUpdateHiveInsertOnly_2019_01_07_None_False_3b5cde55e6
p1782
aVUpdateHiveInsertOnly_2019_01_07_None_False_6f6f0ab46f
p1783
aVUpdateHiveInsertOnly_2019_01_07_None_False_e50d2d0866
p1784
aVUpdateHiveInsertOnly_2019_01_07_None_False_7b2fd7a88a
p1785
atRp1786
sg73
Vnull
p1787
sg75
Nsg76
g3
(g77
g5
NtRp1788
(dp1789
g76
g80
((ltRp1790
sg82
I3600
sg83
NsbsbsVDumpMerger__mnt_platform_du_2019_01_07_False_7352a500f2
p1791
g3
(g4
g5
NtRp1792
(dp1793
g8
VDumpMerger
p1794
sg10
VdumpMergerHDFSToS3
p1795
sg12
g1791
sg13
Nsg14
I00
sg15
g3
(g16
g5
NtRp1796
(dp1797
g19
(dp1798
sg21
(lp1799
Nag1799
ag1799
asbsg23
g3
(g24
g25
(I999999999
I999999999
I3600
ttRp1800
sg27
I0
sg28
(dp1801
Vsrc
p1802
Vs3n://chaordic-dumps/hourly/search-search/2019/01/07/*/*/*.*
p1803
sVforce
p1804
VTrue
p1805
sVdry_run
p1806
VFalse
p1807
sVdst
p1808
Vuser/luigi/dev/daily/search-search/2019/01/07
p1809
sVpartition
p1810
V${apiKey}/${apiKey}_
p1811
sVsend_email
p1812
VFalse
p1813
sVentry_class
p1814
Vcom.chaordicsystems.platform.dump.util.DumpPartitioner
p1815
sVjob_identifier
p1816
Vsearch-search
p1817
sVenv
p1818
Vdev
p1819
sVapp
p1820
V/mnt/platform-dumps-spark/target/scala-2.10/platform-spark-dumps-assembly-0.2.jar
p1821
sVdate_to_run
p1822
V2019/01/07
p1823
ssg52
Nsg53
Nsg54
(dp1824
sg56
g57
((ltRp1825
sg59
VDONE
p1826
sg61
F1547037154.306905
sg62
F1546945954.5535719
sg63
F1547036157.9409881
sg64
VWorker(salt=847977707, workers=20, host=platform-luigi-02, username=luigi, pid=4379)
p1827
sg66
Nsg67
I01
sg68
F1547086773.6301999
sg69
g57
((ltRp1828
sg73
Vnull
p1829
sg75
Nsg76
g3
(g77
g5
NtRp1830
(dp1831
g76
g80
((ltRp1832
sg82
I3600
sg83
NsbsbsVTopNTransfer____mnt_platform_sp_2019_01_07_2436142257
p1833
g3
(g4
g5
NtRp1834
(dp1835
g8
VTopNTransfer
p1836
sg10
VtopN
p1837
sg12
g1833
sg13
Nsg14
I00
sg15
g3
(g16
g5
NtRp1838
(dp1839
g19
(dp1840
sg21
(lp1841
Nag1841
ag1841
asbsg23
g3
(g24
g25
(I999999999
I999999999
I3600
ttRp1842
sg27
I0
sg28
(dp1843
Vapikey
p1844
V*
sVforce
p1845
VTrue
p1846
sVenv
p1847
Vdev
p1848
sVdry_run
p1849
VFalse
p1850
sVdriver_memory
p1851
V9g
p1852
sVnum_executors
p1853
V80
p1854
sVqueue
p1855
Vspark
p1856
sVsend_email
p1857
VFalse
p1858
sVjob_identifier
p1859
VTopNTransfer
p1860
sVmaster
p1861
Vyarn-cluster
p1862
sVdeploy_mode
p1863
Vcluster
p1864
sVexecutor_memory
p1865
V4500m
p1866
sVapp
p1867
V/mnt/platform-spark/target/scala-2.11/platform-spark-assembly-0.1.jar
p1868
sVdate_to_run
p1869
V2019-01-07
p1870
sVspark_submit
p1871
V/usr/hdp/2.6.5.0-292/spark2/bin/spark-submit
p1872
ssg52
Nsg53
Nsg54
(dp1873
sg56
g57
((ltRp1874
sg59
VDONE
p1875
sg61
F1547042709.3061769
sg62
F1546945955.978986
sg63
F1547042224.613723
sg64
VWorker(salt=847977707, workers=20, host=platform-luigi-02, username=luigi, pid=4379)
p1876
sg66
Nsg67
I01
sg68
F1547086773.6302049
sg69
g57
((lp1877
VTopViews___mnt_platform_sp_2019_01_07_72d28d70ab
p1878
aVTopCategoriesByProducts____mnt_platform_sp_2019_01_07_81fe327986
p1879
aVTopBuyOrders___mnt_platform_sp_2019_01_07_2079fdad0a
p1880
aVTopCategoriesByBuyOrders____mnt_platform_sp_2019_01_07_f830327b78
p1881
atRp1882
sg73
Vnull
p1883
sg75
Nsg76
g3
(g77
g5
NtRp1884
(dp1885
g76
g80
((ltRp1886
sg82
I3600
sg83
NsbsbsVRunDumpsKafka___2019_01_07_False_55b5315eb8
p1887
g3
(g4
g5
NtRp1888
(dp1889
g8
VRunDumpsKafka
p1890
sg10
VdumpMergerHDFSToS3
p1891
sg12
g1887
sg13
Nsg14
I00
sg15
g3
(g16
g5
NtRp1892
(dp1893
g19
(dp1894
sg21
(lp1895
Nag1895
ag1895
asbsg23
g3
(g24
g25
(I999999999
I999999999
I3600
ttRp1896
sg27
I0
sg28
(dp1897
Vapikey
p1898
V*
sVforce
p1899
VTrue
p1900
sVdry_run
p1901
VFalse
p1902
sVuse_hive
p1903
VTrue
p1904
sVevents
p1905
V[["sentmails", "sentMail", "dumps_virginia"]]
p1906
sVsend_email
p1907
VFalse
p1908
sVenv
p1909
Vdev
p1910
sVdate_to_run
p1911
V2019/01/07
p1912
ssg52
Nsg53
Nsg54
(dp1913
sg56
g57
((ltRp1914
sg59
VDONE
p1915
sg61
F1547037190.366699
sg62
F1546945963.29773
sg63
F1547037189.6397779
sg64
VWorker(salt=847977707, workers=20, host=platform-luigi-02, username=luigi, pid=4379)
p1916
sg66
Nsg67
I01
sg68
F1547086773.6302099
sg69
g57
((lp1917
VUpdateHive_2019_01_07_None_False_91dcd98b26
p1918
atRp1919
sg73
Vnull
p1920
sg75
Nsg76
g3
(g77
g5
NtRp1921
(dp1922
g76
g80
((ltRp1923
sg82
I3600
sg83
NsbsbsVUpdateHive_EventView_2019_01_07_None_0525eed208
p1924
g3
(g4
g5
NtRp1925
(dp1926
g8
VUpdateHive
p1927
sg10
VplatformDumps
p1928
sg12
g1924
sg13
Nsg14
I00
sg15
g3
(g16
g5
NtRp1929
(dp1930
g19
(dp1931
sg21
(lp1932
Nag1932
ag1932
asbsg23
g3
(g24
g25
(I999999999
I999999999
I3600
ttRp1933
sg27
I0
sg28
(dp1934
Vcolumn_family
p1935
VEventView
p1936
sVforce
p1937
VTrue
p1938
sVdry_run
p1939
VFalse
p1940
sVevent
p1941
Vviews
p1942
sVsend_email
p1943
VFalse
p1944
sVdirectory_to_execute
p1945
VNone
p1946
sVenv
p1947
Vdev
p1948
sVdump_type
p1949
Vdump_event
p1950
sVhive_table
p1951
VNone
p1952
sVdate_to_run
p1953
V2019-01-07
p1954
ssg52
Nsg53
Nsg54
(dp1955
sg56
g57
((ltRp1956
sg59
VDONE
p1957
sg61
F1547040539.1732979
sg62
F1546945961.370929
sg63
F1547040538.832823
sg64
VWorker(salt=847977707, workers=20, host=platform-luigi-02, username=luigi, pid=4379)
p1958
sg66
Nsg67
I01
sg68
F1547086773.6302149
sg69
g57
((lp1959
VDumpEvent_EventView_2019_01_07_None_17443003e7
p1960
atRp1961
sg73
Vnull
p1962
sg75
Nsg76
g3
(g77
g5
NtRp1963
(dp1964
g76
g80
((ltRp1965
sg82
I3600
sg83
NsbsbsVDumpEvent_Event_Transactio_2019_01_07_None_cbbb607fe1
p1966
g3
(g4
g5
NtRp1967
(dp1968
g8
VDumpEvent
p1969
sg10
VplatformDumps
p1970
sg12
g1966
sg13
F1546983787.830193
sg14
I00
sg15
g3
(g16
g5
NtRp1971
(dp1972
g19
(dp1973
sg21
(lp1974
Nag1974
ag1974
asbsg23
g3
(g24
g25
(I999999999
I999999999
I3600
ttRp1975
sg27
I5
sg28
(dp1976
Vcolumn_family
p1977
VEvent_Transaction
p1978
sVforce
p1979
VTrue
p1980
sVdry_run
p1981
VFalse
p1982
sVevent
p1983
VbuyOrders
p1984
sVsend_email
p1985
VFalse
p1986
sVdirectory_to_execute
p1987
VNone
p1988
sVenv
p1989
Vdev
p1990
sVextra_opts
p1991
V('-Dmapreduce.map.memory.mb=512', '-Dmapreduce.reduce.memory.mb=1024', '-Dmapreduce.map.java.opts=-Xmx456m', '-Dmapreduce.reduce.java.opts=-Xmx819m')
p1992
sVdate_to_run
p1993
V2019-01-07
p1994
sVopts
p1995
V-ce
p1996
ssg52
Nsg53
Nsg54
(dp1997
Vmax_parallel_cassandra_tasks
p1998
I1
ssg56
g57
((ltRp1999
sg59
VDONE
p2000
sg61
F1547038193.4761789
sg62
F1546945955.5527551
sg63
F1547036286.0897911
sg64
VWorker(salt=847977707, workers=20, host=platform-luigi-02, username=luigi, pid=4379)
p2001
sg66
Nsg67
I01
sg68
F1547086773.630219
sg69
g57
((lp2002
VUpdateClientsLists_2019_01_08_None_False_0f36255ac8
p2003
atRp2004
sg73
Vnull
p2005
sg75
Nsg76
g3
(g77
g5
NtRp2006
(dp2007
g76
g80
((lp2008
F1546981729.3529861
aF1546982887.830169
atRp2009
sg82
I3600
sg83
F1546981729.3529861
sbsbsVDumpToHive__mnt_platform_sp_2019_01_07_cluster_290f2be56b
p2010
g3
(g4
g5
NtRp2011
(dp2012
g8
VDumpToHive
p2013
sg10
VdumpToHive
p2014
sg12
g2010
sg13
F1546959684.665024
sg14
I00
sg15
g3
(g16
g5
NtRp2015
(dp2016
g19
(dp2017
sg21
(lp2018
Nag2018
ag2018
asbsg23
g3
(g24
g25
(I999999999
I999999999
I3600
ttRp2019
sg27
I0
sg28
(dp2020
Vforce
p2021
VTrue
p2022
sVenv
p2023
Vdev
p2024
sVdry_run
p2025
VFalse
p2026
sVdriver_memory
p2027
V9g
p2028
sVnum_executors
p2029
V80
p2030
sVpartition_by
p2031
Vapikey
p2032
sVdate_to_run
p2033
V2019-01-07
p2034
sVqueue
p2035
Vspark
p2036
sVsend_email
p2037
VFalse
p2038
sVjob_identifier
p2039
Vsoftusers
p2040
sVmaster
p2041
Vyarn-cluster
p2042
sVdeploy_mode
p2043
Vcluster
p2044
sVexecutor_memory
p2045
V4500m
p2046
sVapp
p2047
V/mnt/platform-spark/target/scala-2.11/platform-spark-assembly-0.1.jar
p2048
sVevent
p2049
Vsoftusers
p2050
sVspark_submit
p2051
V/usr/hdp/2.6.5.0-292/spark2/bin/spark-submit
p2052
ssg52
Nsg53
Nsg54
(dp2053
sg56
g57
((ltRp2054
sg59
VDONE
p2055
sg61
F1547038406.236429
sg62
F1546945963.5699849
sg63
F1547037625.9964399
sg64
VWorker(salt=847977707, workers=20, host=platform-luigi-02, username=luigi, pid=4379)
p2056
sg66
Nsg67
I01
sg68
F1547086773.630224
sg69
g57
((lp2057
VDumpSoftUsers__mnt_platform_du_2019_01_07_False_065ad08018
p2058
atRp2059
sg73
Vnull
p2060
sg75
Nsg76
g3
(g77
g5
NtRp2061
(dp2062
g76
g80
((lp2063
F1546958784.6649971
atRp2064
sg82
I3600
sg83
F1546955150.9438789
sbsbsg367
g3
(g4
g5
NtRp2065
(dp2066
g8
VUpdateClientsLists
p2067
sg10
VplatformDumps
p2068
sg12
g367
sg13
Nsg14
I00
sg15
g3
(g16
g5
NtRp2069
(dp2070
g19
(dp2071
sg21
(lp2072
Nag2072
ag2072
asbsg23
g3
(g24
g25
(I999999999
I999999999
I3600
ttRp2073
sg27
I5
sg28
(dp2074
Vforce
p2075
VTrue
p2076
sVdry_run
p2077
VFalse
p2078
sVsend_email
p2079
VFalse
p2080
sVdirectory_to_execute
p2081
VNone
p2082
sVenv
p2083
Vdev
p2084
sVdate_to_run
p2085
V2019/01/08
p2086
ssg52
Nsg53
Nsg54
(dp2087
sg56
g57
((ltRp2088
sg59
VDONE
p2089
sg61
F1547036286.0851941
sg62
F1547036144.176223
sg63
F1547036157.8279231
sg64
VWorker(salt=847977707, workers=20, host=platform-luigi-02, username=luigi, pid=4379)
p2090
sg66
Nsg67
I01
sg68
F1547086773.630229
sg69
g57
((lp2091
VMakeDirectory__tmp_platDumps_251e71330b
p2092
atRp2093
sg73
Vnull
p2094
sg75
Nsg76
g3
(g77
g5
NtRp2095
(dp2096
g76
g80
((ltRp2097
sg82
I3600
sg83
NsbsbsVDumpMerger__mnt_platform_du_2019_01_07_False_3b1ce99511
p2098
g3
(g4
g5
NtRp2099
(dp2100
g8
VDumpMerger
p2101
sg10
VdumpMergerHDFSToS3
p2102
sg12
g2098
sg13
Nsg14
I00
sg15
g3
(g16
g5
NtRp2103
(dp2104
g19
(dp2105
sg21
(lp2106
Nag2106
ag2106
asbsg23
g3
(g24
g25
(I999999999
I999999999
I3600
ttRp2107
sg27
I0
sg28
(dp2108
Vsrc
p2109
Vs3n://chaordic-dumps/hourly/productUpdates/2019/01/07/*/*/*.*
p2110
sVforce
p2111
VTrue
p2112
sVdry_run
p2113
VFalse
p2114
sVdst
p2115
Vuser/luigi/dev/daily/productUpdates/2019/01/07
p2116
sVpartition
p2117
V${apiKey}/${apiKey}_
p2118
sVsend_email
p2119
VFalse
p2120
sVentry_class
p2121
Vcom.chaordicsystems.platform.dump.util.DumpPartitioner
p2122
sVjob_identifier
p2123
VproductUpdates
p2124
sVenv
p2125
Vdev
p2126
sVapp
p2127
V/mnt/platform-dumps-spark/target/scala-2.10/platform-spark-dumps-assembly-0.2.jar
p2128
sVdate_to_run
p2129
V2019/01/07
p2130
ssg52
Nsg53
Nsg54
(dp2131
sg56
g57
((ltRp2132
sg59
VDONE
p2133
sg61
F1547037376.9008391
sg62
F1546945960.935843
sg63
F1547036158.334676
sg64
VWorker(salt=847977707, workers=20, host=platform-luigi-02, username=luigi, pid=4379)
p2134
sg66
Nsg67
I01
sg68
F1547086773.630234
sg69
g57
((ltRp2135
sg73
Vnull
p2136
sg75
Nsg76
g3
(g77
g5
NtRp2137
(dp2138
g76
g80
((ltRp2139
sg82
I3600
sg83
NsbsbsVHDFSToS3_2019_01_07_None_False_0590a0a46f
p2140
g3
(g4
g5
NtRp2141
(dp2142
g8
VHDFSToS3
p2143
sg10
VdumpMergerHDFSToS3
p2144
sg12
g2140
sg13
Nsg14
I00
sg15
g3
(g16
g5
NtRp2145
(dp2146
g19
(dp2147
sg21
(lp2148
Nag2148
ag2148
asbsg23
g3
(g24
g25
(I999999999
I999999999
I3600
ttRp2149
sg27
I0
sg28
(dp2150
Vsrc
p2151
Vs3n://chaordic-dumps/hourly/sentMail/2019/01/07/*/*/*.*
p2152
sVpartition
p2153
V${apiKey}/${apiKey}_
p2154
sVforce
p2155
VTrue
p2156
sVdry_run
p2157
VFalse
p2158
sVtopic_virginia
p2159
Vsentmails
p2160
sVevent
p2161
VsentMail
p2162
sVsend_email
p2163
VFalse
p2164
sVdirectory_to_execute
p2165
VNone
p2166
sVenv
p2167
Vdev
p2168
sVdump_destination
p2169
Vdumps_virginia
p2170
sVdate_to_run
p2171
V2019/01/07
p2172
ssg52
Nsg53
Nsg54
(dp2173
sg56
g57
((ltRp2174
sg59
VDONE
p2175
sg61
F1547036885.37767
sg62
F1546945964.342109
sg63
F1547036801.11847
sg64
VWorker(salt=847977707, workers=20, host=platform-luigi-02, username=luigi, pid=4379)
p2176
sg66
Nsg67
I01
sg68
F1547086773.630239
sg69
g57
((lp2177
VHDFSToS3_2019_01_07_None_False_ef03a0b6e0
p2178
atRp2179
sg73
Vnull
p2180
sg75
Nsg76
g3
(g77
g5
NtRp2181
(dp2182
g76
g80
((ltRp2183
sg82
I3600
sg83
NsbsbsVDumpToHive__mnt_platform_sp_2019_01_07_cluster_b27f9fb2bc
p2184
g3
(g4
g5
NtRp2185
(dp2186
g8
VDumpToHive
p2187
sg10
VdumpToHive
p2188
sg12
g2184
sg13
Nsg14
I00
sg15
g3
(g16
g5
NtRp2189
(dp2190
g19
(dp2191
sg21
(lp2192
Nag2192
ag2192
asbsg23
g3
(g24
g25
(I999999999
I999999999
I3600
ttRp2193
sg27
I0
sg28
(dp2194
Vforce
p2195
VTrue
p2196
sVenv
p2197
Vdev
p2198
sVdry_run
p2199
VFalse
p2200
sVdriver_memory
p2201
V9g
p2202
sVnum_executors
p2203
V80
p2204
sVpartition_by
p2205
Vdate
p2206
sVdate_to_run
p2207
V2019-01-07
p2208
sVqueue
p2209
Vspark
p2210
sVsend_email
p2211
VFalse
p2212
sVjob_identifier
p2213
Vbanner-impression
p2214
sVmaster
p2215
Vyarn-cluster
p2216
sVdeploy_mode
p2217
Vcluster
p2218
sVexecutor_memory
p2219
V4500m
p2220
sVapp
p2221
V/mnt/platform-spark/target/scala-2.11/platform-spark-assembly-0.1.jar
p2222
sVevent
p2223
Vbanner-impression
p2224
sVspark_submit
p2225
V/usr/hdp/2.6.5.0-292/spark2/bin/spark-submit
p2226
ssg52
Nsg53
Nsg54
(dp2227
sg56
g57
((ltRp2228
sg59
VDONE
p2229
sg61
F1547036815.5406051
sg62
F1546945969.197638
sg63
F1547036159.1023581
sg64
VWorker(salt=847977707, workers=20, host=platform-luigi-02, username=luigi, pid=4379)
p2230
sg66
Nsg67
I01
sg68
F1547086773.630244
sg69
g57
((ltRp2231
sg73
Vnull
p2232
sg75
Nsg76
g3
(g77
g5
NtRp2233
(dp2234
g76
g80
((ltRp2235
sg82
I3600
sg83
NsbsbsVRunTopN___2019_01_07_False_7aa206fb63
p2236
g3
(g4
g5
NtRp2237
(dp2238
g8
VRunTopN
p2239
sg10
VtopN
p2240
sg12
g2236
sg13
Nsg14
I00
sg15
g3
(g16
g5
NtRp2241
(dp2242
g19
(dp2243
sg21
(lp2244
Nag2244
ag2244
asbsg23
g3
(g24
g25
(I999999999
I999999999
I3600
ttRp2245
sg27
I0
sg28
(dp2246
Vapikey
p2247
V*
sVforce
p2248
VTrue
p2249
sVdry_run
p2250
VFalse
p2251
sVuse_hive
p2252
VFalse
p2253
sVevents
p2254
V[]
p2255
sVsend_email
p2256
VFalse
p2257
sVenv
p2258
Vdev
p2259
sVdate_to_run
p2260
V2019-01-07
p2261
ssg52
Nsg53
Nsg54
(dp2262
sg56
g57
((ltRp2263
sg59
VDONE
p2264
sg61
F1547042709.5427909
sg62
F1546945952.1341
sg63
F1547042709.3186281
sg64
VWorker(salt=847977707, workers=20, host=platform-luigi-02, username=luigi, pid=4379)
p2265
sg66
Nsg67
I01
sg68
F1547086773.630249
sg69
g57
((lp2266
VTopNTransfer____mnt_platform_sp_2019_01_07_2436142257
p2267
atRp2268
sg73
Vnull
p2269
sg75
Nsg76
g3
(g77
g5
NtRp2270
(dp2271
g76
g80
((ltRp2272
sg82
I3600
sg83
NsbsbsVDistcpLatestToProduct_2019_01_07_None_False_741eafcd75
p2273
g3
(g4
g5
NtRp2274
(dp2275
g8
VDistcpLatestToProduct
p2276
sg10
VplatformDumps
p2277
sg12
g2273
sg13
F1546981460.3243041
sg14
I00
sg15
g3
(g16
g5
NtRp2278
(dp2279
g19
(dp2280
sg21
(lp2281
Nag2281
ag2281
asbsg23
g3
(g24
g25
(I999999999
I999999999
I3600
ttRp2282
sg27
I0
sg28
(dp2283
Vforce
p2284
VTrue
p2285
sVdry_run
p2286
VFalse
p2287
sVevent
p2288
Vproducts
p2289
sVsend_email
p2290
VFalse
p2291
sVdirectory_to_execute
p2292
VNone
p2293
sVenv
p2294
Vdev
p2295
sVdate_to_run
p2296
V2019-01-07
p2297
ssg52
Nsg53
Nsg54
(dp2298
sg56
g57
((ltRp2299
sg59
VDONE
p2300
sg61
F1547036598.4809189
sg62
F1546945957.169359
sg63
F1547036158.213891
sg64
VWorker(salt=847977707, workers=20, host=platform-luigi-02, username=luigi, pid=4379)
p2301
sg66
Nsg67
I01
sg68
F1547086773.630254
sg69
g57
((ltRp2302
sg73
Vnull
p2303
sg75
Nsg76
g3
(g77
g5
NtRp2304
(dp2305
g76
g80
((lp2306
F1546980560.324276
atRp2307
sg82
I3600
sg83
F1546980560.324276
sbsbsVUpdateClientsLists_2019_01_07_None_False_86fb01e458
p2308
g3
(g4
g5
NtRp2309
(dp2310
g8
VUpdateClientsLists
p2311
sg10
VplatformDumps
p2312
sg12
g2308
sg13
Nsg14
I00
sg15
g3
(g16
g5
NtRp2313
(dp2314
g19
(dp2315
sg21
(lp2316
Nag2316
ag2316
asbsg23
g3
(g24
g25
(I999999999
I999999999
I3600
ttRp2317
sg27
I5
sg28
(dp2318
Vforce
p2319
VTrue
p2320
sVdry_run
p2321
VFalse
p2322
sVsend_email
p2323
VFalse
p2324
sVdirectory_to_execute
p2325
VNone
p2326
sVenv
p2327
Vdev
p2328
sVdate_to_run
p2329
V2019/01/07
p2330
ssg52
Nsg53
Nsg54
(dp2331
sg56
g57
((ltRp2332
sg59
VDONE
p2333
sg61
F1546980281.8737299
sg62
F1546945955.7419541
sg63
F1546980155.6501219
sg64
VWorker(salt=612279892, workers=20, host=platform-luigi-02, username=luigi, pid=29555)
p2334
sg66
Nsg67
I01
sg68
F1547079333.6068289
sg69
g57
((lp2335
VMakeDirectory__tmp_platDumps_251e71330b
p2336
atRp2337
sg73
Vnull
p2338
sg75
Nsg76
g3
(g77
g5
NtRp2339
(dp2340
g76
g80
((ltRp2341
sg82
I3600
sg83
NsbsbsVDumpEvent_EventView_2019_01_07_None_17443003e7
p2342
g3
(g4
g5
NtRp2343
(dp2344
g8
VDumpEvent
p2345
sg10
VplatformDumps
p2346
sg12
g2342
sg13
F1546983639.9873309
sg14
I00
sg15
g3
(g16
g5
NtRp2347
(dp2348
g19
(dp2349
sg21
(lp2350
Nag2350
ag2350
asbsg23
g3
(g24
g25
(I999999999
I999999999
I3600
ttRp2351
sg27
I5
sg28
(dp2352
Vcolumn_family
p2353
VEventView
p2354
sVforce
p2355
VTrue
p2356
sVdry_run
p2357
VFalse
p2358
sVevent
p2359
Vviews
p2360
sVsend_email
p2361
VFalse
p2362
sVdirectory_to_execute
p2363
VNone
p2364
sVenv
p2365
Vdev
p2366
sVextra_opts
p2367
V('-Dmapreduce.map.memory.mb=512', '-Dmapreduce.reduce.memory.mb=1024', '-Dmapreduce.map.java.opts=-Xmx456m', '-Dmapreduce.reduce.java.opts=-Xmx819m')
p2368
sVdate_to_run
p2369
V2019-01-07
p2370
sVopts
p2371
V-ce
p2372
ssg52
Nsg53
Nsg54
(dp2373
Vmax_parallel_cassandra_tasks
p2374
I1
ssg56
g57
((ltRp2375
sg59
VDONE
p2376
sg61
F1547040538.7711451
sg62
F1546945957.4220941
sg63
F1547036287.2886469
sg64
VWorker(salt=847977707, workers=20, host=platform-luigi-02, username=luigi, pid=4379)
p2377
sg66
Nsg67
I01
sg68
F1547086773.6302609
sg69
g57
((lp2378
VUpdateClientsLists_2019_01_08_None_False_0f36255ac8
p2379
atRp2380
sg73
Vnull
p2381
sg75
Nsg76
g3
(g77
g5
NtRp2382
(dp2383
g76
g80
((lp2384
F1546982739.987308
atRp2385
sg82
I3600
sg83
F1546982739.987308
sbsbsVUpdateHiveInsertOnly_2019_01_07_None_False_3a93d593f6
p2386
g3
(g4
g5
NtRp2387
(dp2388
g8
VUpdateHiveInsertOnly
p2389
sg10
VsessionMaker
p2390
sg12
g2386
sg13
Nsg14
I00
sg15
g3
(g16
g5
NtRp2391
(dp2392
g19
(dp2393
sg21
(lp2394
Nag2394
ag2394
asbsg23
g3
(g24
g25
(I999999999
I999999999
I3600
ttRp2395
sg27
I0
sg28
(dp2396
Vforce
p2397
VTrue
p2398
sVdry_run
p2399
VFalse
p2400
sVevent
p2401
Vview
p2402
sVsend_email
p2403
VFalse
p2404
sVdirectory_to_execute
p2405
VNone
p2406
sVenv
p2407
Vdev
p2408
sVhive_table
p2409
Vviews
p2410
sVdate_to_run
p2411
V2019-01-07
p2412
ssg52
Nsg53
Nsg54
(dp2413
sg56
g57
((ltRp2414
sg59
VPENDING
p2415
sg61
F1546980146.292176
sg62
F1546945958.089922
sg63
F1546955721.4584529
sg64
VWorker(salt=023470692, workers=20, host=platform-luigi-02, username=luigi, pid=22220)
p2416
sg66
Nsg67
I01
sg68
F1547086773.6302669
sg69
g57
((lp2417
VPopulateAuxTable__mnt_platform_sp_2019_01_07_cluster_8647f2b78f
p2418
atRp2419
sg73
Vnull
p2420
sg75
Nsg76
g3
(g77
g5
NtRp2421
(dp2422
g76
g80
((ltRp2423
sg82
I3600
sg83
NsbsbsVUpdateHiveInsertOnly_2019_01_07_None_False_e50d2d0866
p2424
g3
(g4
g5
NtRp2425
(dp2426
g8
VUpdateHiveInsertOnly
p2427
sg10
VsessionMaker
p2428
sg12
g2424
sg13
Nsg14
I00
sg15
g3
(g16
g5
NtRp2429
(dp2430
g19
(dp2431
sg21
(lp2432
Nag2432
ag2432
asbsg23
g3
(g24
g25
(I999999999
I999999999
I3600
ttRp2433
sg27
I0
sg28
(dp2434
Vforce
p2435
VTrue
p2436
sVdry_run
p2437
VFalse
p2438
sVevent
p2439
VpageViews
p2440
sVsend_email
p2441
VFalse
p2442
sVdirectory_to_execute
p2443
VNone
p2444
sVenv
p2445
Vdev
p2446
sVhive_table
p2447
VpageViews
p2448
sVdate_to_run
p2449
V2019-01-07
p2450
ssg52
Nsg53
Nsg54
(dp2451
sg56
g57
((ltRp2452
sg59
VPENDING
p2453
sg61
F1546980146.022135
sg62
F1546945958.0899551
sg63
F1546956044.8250439
sg64
VWorker(salt=023470692, workers=20, host=platform-luigi-02, username=luigi, pid=22220)
p2454
sg66
Nsg67
I01
sg68
F1547086773.6302719
sg69
g57
((lp2455
VPopulateAuxTable__mnt_platform_sp_2019_01_07_cluster_debb7dc3c9
p2456
atRp2457
sg73
Vnull
p2458
sg75
Nsg76
g3
(g77
g5
NtRp2459
(dp2460
g76
g80
((ltRp2461
sg82
I3600
sg83
NsbsbsVUpdateHive_Event_ProductCre_2019_01_07_None_ec92edd556
p2462
g3
(g4
g5
NtRp2463
(dp2464
g8
VUpdateHive
p2465
sg10
VplatformDumps
p2466
sg12
g2462
sg13
Nsg14
I00
sg15
g3
(g16
g5
NtRp2467
(dp2468
g19
(dp2469
sg21
(lp2470
Nag2470
ag2470
asbsg23
g3
(g24
g25
(I999999999
I999999999
I3600
ttRp2471
sg27
I0
sg28
(dp2472
Vcolumn_family
p2473
VEvent_ProductCreated
p2474
sVforce
p2475
VTrue
p2476
sVdry_run
p2477
VFalse
p2478
sVevent
p2479
VproductCreated
p2480
sVsend_email
p2481
VFalse
p2482
sVdirectory_to_execute
p2483
VNone
p2484
sVenv
p2485
Vdev
p2486
sVdump_type
p2487
Vdump_event
p2488
sVhive_table
p2489
VproductCreated
p2490
sVdate_to_run
p2491
V2019-01-07
p2492
ssg52
Nsg53
Nsg54
(dp2493
sg56
g57
((ltRp2494
sg59
VDONE
p2495
sg61
F1547038151.6222219
sg62
F1546945961.370944
sg63
F1547038077.350939
sg64
VWorker(salt=847977707, workers=20, host=platform-luigi-02, username=luigi, pid=4379)
p2496
sg66
Nsg67
I01
sg68
F1547086773.630276
sg69
g57
((lp2497
VDumpEvent_Event_ProductCre_2019_01_07_None_be28086f23
p2498
atRp2499
sg73
Vnull
p2500
sg75
Nsg76
g3
(g77
g5
NtRp2501
(dp2502
g76
g80
((ltRp2503
sg82
I3600
sg83
NsbsbsVUpdateHive_EventBounce_2019_01_07_None_56a3bcf8b9
p2504
g3
(g4
g5
NtRp2505
(dp2506
g8
VUpdateHive
p2507
sg10
VplatformDumps
p2508
sg12
g2504
sg13
Nsg14
I00
sg15
g3
(g16
g5
NtRp2509
(dp2510
g19
(dp2511
sg21
(lp2512
Nag2512
ag2512
asbsg23
g3
(g24
g25
(I999999999
I999999999
I3600
ttRp2513
sg27
I0
sg28
(dp2514
Vcolumn_family
p2515
VEventBounce
p2516
sVforce
p2517
VTrue
p2518
sVdry_run
p2519
VFalse
p2520
sVevent
p2521
Vbounces
p2522
sVsend_email
p2523
VFalse
p2524
sVdirectory_to_execute
p2525
VNone
p2526
sVenv
p2527
Vdev
p2528
sVdump_type
p2529
Vdump_event
p2530
sVhive_table
p2531
Vbounces
p2532
sVdate_to_run
p2533
V2019-01-07
p2534
ssg52
Nsg53
Nsg54
(dp2535
sg56
g57
((ltRp2536
sg59
VDONE
p2537
sg61
F1547039068.6886771
sg62
F1546945966.1417611
sg63
F1547038973.352782
sg64
VWorker(salt=847977707, workers=20, host=platform-luigi-02, username=luigi, pid=4379)
p2538
sg66
Nsg67
I01
sg68
F1547086773.630281
sg69
g57
((lp2539
VDumpEvent_EventBounce_2019_01_07_None_f73858c2bf
p2540
atRp2541
sg73
Vnull
p2542
sg75
Nsg76
g3
(g77
g5
NtRp2543
(dp2544
g76
g80
((ltRp2545
sg82
I3600
sg83
NsbsbsVBaseMetricJob__mnt_platform_sp_2019_01_07_cluster_f81bc53b44
p2546
g3
(g4
g5
NtRp2547
(dp2548
g8
VBaseMetricJob
p2549
sg10
VbaseMetrics
p2550
sg12
g2546
sg13
F1547037033.606961
sg14
I00
sg15
g3
(g16
g5
NtRp2551
(dp2552
g19
(dp2553
sg21
(lp2554
Nag2554
ag2554
asbsg23
g3
(g24
g25
(I999999999
I999999999
I3600
ttRp2555
sg27
I0
sg28
(dp2556
Vforce
p2557
VTrue
p2558
sVenv
p2559
Vdev
p2560
sVdry_run
p2561
VFalse
p2562
sVdriver_memory
p2563
V9g
p2564
sVnum_executors
p2565
V65
p2566
sVqueue
p2567
Vspark
p2568
sVsend_email
p2569
VFalse
p2570
sVentry_class
p2571
Vplatform.etl.BaseMetrics
p2572
sVjob_identifier
p2573
Vsession
p2574
sVmaster
p2575
Vyarn-cluster
p2576
sVdeploy_mode
p2577
Vcluster
p2578
sVexecutor_memory
p2579
V4500m
p2580
sVapp
p2581
V/mnt/platform-spark/target/scala-2.11/platform-spark-assembly-0.1.jar
p2582
sVdate_to_run
p2583
V2019-01-07
p2584
sVspark_submit
p2585
V/usr/hdp/2.6.5.0-292/spark2/bin/spark-submit
p2586
ssg52
Nsg53
Nsg54
(dp2587
sg56
g57
((ltRp2588
sg59
VPENDING
p2589
sg61
F1547036144.2714641
sg62
F1546945952.516263
sg63
F1546986577.980268
sg64
Nsg66
Nsg67
I01
sg68
F1547086773.630286
sg69
g57
((lp2590
VSessionMaker__mnt_platform_sp_2019_01_07_cluster_6badb8f9d4
p2591
atRp2592
sg73
Vnull
p2593
sg75
Nsg76
g3
(g77
g5
NtRp2594
(dp2595
g76
g80
((lp2596
F1547036133.6069479
atRp2597
sg82
I3600
sg83
F1547036133.6069479
sbsbsVRunETLOnsite___2019_01_07_False_90d873f9de
p2598
g3
(g4
g5
NtRp2599
(dp2600
g8
VRunETLOnsite
p2601
sg10
Vonsite
p2602
sg12
g2598
sg13
Nsg14
I00
sg15
g3
(g16
g5
NtRp2603
(dp2604
g19
(dp2605
sg21
(lp2606
Nag2606
ag2606
asbsg23
g3
(g24
g25
(I999999999
I999999999
I3600
ttRp2607
sg27
I0
sg28
(dp2608
Vonsite_jobs
p2609
V
sVapikey
p2610
V*
sVforce
p2611
VTrue
p2612
sVonsite_client
p2613
V
sVdry_run
p2614
VFalse
p2615
sVonly_plat_flow
p2616
VFalse
p2617
sVuse_hive
p2618
VFalse
p2619
sVevents
p2620
V[]
p2621
sVsend_email
p2622
VFalse
p2623
sVenv
p2624
Vdev
p2625
sVdate_to_run
p2626
V2019-01-07
p2627
ssg52
Nsg53
Nsg54
(dp2628
sg56
g57
((ltRp2629
sg59
VPENDING
p2630
sg61
F1546980152.9664471
sg62
F1546980139.126873
sg63
Nsg64
Nsg66
Nsg67
I01
sg68
F1547086773.630291
sg69
g57
((lp2631
VOnsiteETL_2019_01_07_None_False_0cc4954a87
p2632
atRp2633
sg73
Nsg75
Nsg76
g3
(g77
g5
NtRp2634
(dp2635
g76
g80
((ltRp2636
sg82
I3600
sg83
NsbsbsVDumpMerger__mnt_platform_du_2019_01_07_False_008c8d9149
p2637
g3
(g4
g5
NtRp2638
(dp2639
g8
VDumpMerger
p2640
sg10
VdumpMergerHDFSToS3
p2641
sg12
g2637
sg13
Nsg14
I00
sg15
g3
(g16
g5
NtRp2642
(dp2643
g19
(dp2644
sg21
(lp2645
Nag2645
ag2645
asbsg23
g3
(g24
g25
(I999999999
I999999999
I3600
ttRp2646
sg27
I0
sg28
(dp2647
Vsrc
p2648
Vs3n://chaordic-dumps/hourly/busca-searchapiclick/2019/01/07/*/*/*.*
p2649
sVforce
p2650
VTrue
p2651
sVdry_run
p2652
VFalse
p2653
sVdst
p2654
Vuser/luigi/dev/daily/busca-searchapiclick/2019/01/07
p2655
sVpartition
p2656
V${apiKey}/${apiKey}_
p2657
sVsend_email
p2658
VFalse
p2659
sVentry_class
p2660
Vcom.chaordicsystems.platform.dump.util.DumpPartitioner
p2661
sVjob_identifier
p2662
Vbusca-searchapiclick
p2663
sVenv
p2664
Vdev
p2665
sVapp
p2666
V/mnt/platform-dumps-spark/target/scala-2.10/platform-spark-dumps-assembly-0.2.jar
p2667
sVdate_to_run
p2668
V2019/01/07
p2669
ssg52
Nsg53
Nsg54
(dp2670
sg56
g57
((ltRp2671
sg59
VDONE
p2672
sg61
F1547036487.5842929
sg62
F1546945954.328371
sg63
F1547036157.873472
sg64
VWorker(salt=847977707, workers=20, host=platform-luigi-02, username=luigi, pid=4379)
p2673
sg66
Nsg67
I01
sg68
F1547086773.630296
sg69
g57
((ltRp2674
sg73
Vnull
p2675
sg75
Nsg76
g3
(g77
g5
NtRp2676
(dp2677
g76
g80
((ltRp2678
sg82
I3600
sg83
NsbsbsVMailETL_2019_01_07_None_False_5e469977d9
p2679
g3
(g4
g5
NtRp2680
(dp2681
g8
VMailETL
p2682
sg10
Vmail
p2683
sg12
g2679
sg13
Nsg14
I00
sg15
g3
(g16
g5
NtRp2684
(dp2685
g19
(dp2686
sg21
(lp2687
Nag2687
ag2687
asbsg23
g3
(g24
g25
(I999999999
I999999999
I3600
ttRp2688
sg27
I0
sg28
(dp2689
Vstep_to_execute
p2690
V-T
p2691
sVforce
p2692
VTrue
p2693
sVmail_client
p2694
V
sVdry_run
p2695
VFalse
p2696
sVmail_jobs
p2697
V
sVonly_plat_flow
p2698
VFalse
p2699
sVsend_email
p2700
VFalse
p2701
sVdirectory_to_execute
p2702
VNone
p2703
sVenv
p2704
Vdev
p2705
sVdate_to_run
p2706
V2019-01-07
p2707
ssg52
Nsg53
Nsg54
(dp2708
sg56
g57
((ltRp2709
sg59
VPENDING
p2710
sg61
F1546980150.1620469
sg62
F1546980148.828877
sg63
Nsg64
Nsg66
Nsg67
I01
sg68
F1547086773.6303
sg69
g57
((lp2711
VFromDumpToHiveEvents___2019_01_07_False_99e127ce31
p2712
aVRunDumpsKafka___2019_01_07_False_55b5315eb8
p2713
aVRunDumpsCassandra___2019_01_07_False_056b5f27aa
p2714
aVRunPlatformSessionMaker______Event_Transac_2019_01_07_abb7db5088
p2715
atRp2716
sg73
Nsg75
Nsg76
g3
(g77
g5
NtRp2717
(dp2718
g76
g80
((ltRp2719
sg82
I3600
sg83
NsbsbsVDumpMerger__mnt_platform_du_2019_01_07_False_47bd4a857d
p2720
g3
(g4
g5
NtRp2721
(dp2722
g8
VDumpMerger
p2723
sg10
VdumpMergerHDFSToS3
p2724
sg12
g2720
sg13
Nsg14
I00
sg15
g3
(g16
g5
NtRp2725
(dp2726
g19
(dp2727
sg21
(lp2728
Nag2728
ag2728
asbsg23
g3
(g24
g25
(I999999999
I999999999
I3600
ttRp2729
sg27
I0
sg28
(dp2730
Vsrc
p2731
Vs3n://chaordic-dumps/hourly/pageViews/2019/01/07/*/*/*.*
p2732
sVforce
p2733
VTrue
p2734
sVdry_run
p2735
VFalse
p2736
sVdst
p2737
Vuser/luigi/dev/daily/pageViews/2019/01/07
p2738
sVpartition
p2739
V${apiKey}/${apiKey}_
p2740
sVsend_email
p2741
VFalse
p2742
sVentry_class
p2743
Vcom.chaordicsystems.platform.dump.util.DumpPartitioner
p2744
sVjob_identifier
p2745
VpageViews
p2746
sVenv
p2747
Vdev
p2748
sVapp
p2749
V/mnt/platform-dumps-spark/target/scala-2.10/platform-spark-dumps-assembly-0.2.jar
p2750
sVdate_to_run
p2751
V2019/01/07
p2752
ssg52
Nsg53
Nsg54
(dp2753
sg56
g57
((ltRp2754
sg59
VDONE
p2755
sg61
F1547038457.9539959
sg62
F1546945954.828922
sg63
F1547036158.0067339
sg64
VWorker(salt=847977707, workers=20, host=platform-luigi-02, username=luigi, pid=4379)
p2756
sg66
Nsg67
I01
sg68
F1547086773.630306
sg69
g57
((ltRp2757
sg73
Vnull
p2758
sg75
Nsg76
g3
(g77
g5
NtRp2759
(dp2760
g76
g80
((ltRp2761
sg82
I3600
sg83
NsbsbsVPopulateAuxTable__mnt_platform_sp_2019_01_07_cluster_6ca386d76b
p2762
g3
(g4
g5
NtRp2763
(dp2764
g8
VPopulateAuxTable
p2765
sg10
VsessionMaker
p2766
sg12
g2762
sg13
F1546989843.5261171
sg14
I00
sg15
g3
(g16
g5
NtRp2767
(dp2768
g19
(dp2769
sg21
(lp2770
Nag2770
ag2770
asbsg23
g3
(g24
g25
(I999999999
I999999999
I3600
ttRp2771
sg27
I0
sg28
(dp2772
Vforce
p2773
VTrue
p2774
sVdeploy_mode
p2775
Vcluster
p2776
sVdry_run
p2777
VFalse
p2778
sVdriver_memory
p2779
V9g
p2780
sVnum_executors
p2781
V80
p2782
sVdate_to_run
p2783
V2019-01-07
p2784
sVqueue
p2785
Vspark
p2786
sVsend_email
p2787
VFalse
p2788
sVentry_class
p2789
Vplatform.etl.PopulateAuxTable
p2790
sVjob_identifier
p2791
Vsearch_view
p2792
sVmaster
p2793
Vyarn-cluster
p2794
sVenv
p2795
Vdev
p2796
sVexecutor_memory
p2797
V4500m
p2798
sVapp
p2799
V/mnt/platform-spark/target/scala-2.11/platform-spark-assembly-0.1.jar
p2800
sVevent
p2801
Vsearch_view
p2802
sVspark_submit
p2803
V/usr/hdp/2.6.5.0-292/spark2/bin/spark-submit
p2804
ssg52
Nsg53
Nsg54
(dp2805
sg56
g57
((ltRp2806
sg59
g364
sg61
F1546989873.5708711
sg62
F1546945958.4737821
sg63
F1546986578.4501381
sg64
VWorker(salt=612279892, workers=20, host=platform-luigi-02, username=luigi, pid=29555)
p2807
sg66
Nsg67
I01
sg68
F1547086773.6303101
sg69
g57
((lp2808
VSessionMaker__mnt_platform_sp_2019_01_07_cluster_6badb8f9d4
p2809
atRp2810
sg73
Vnull
p2811
sg75
Nsg76
g3
(g77
g5
NtRp2812
(dp2813
g76
g80
((lp2814
F1546988943.5260971
atRp2815
sg82
I3600
sg83
F1546988943.5260971
sbsbsVPopulateAuxTable__mnt_platform_sp_2019_01_07_cluster_b092e64657
p2816
g3
(g4
g5
NtRp2817
(dp2818
g8
VPopulateAuxTable
p2819
sg10
VsessionMaker
p2820
sg12
g2816
sg13
F1546989242.215739
sg14
I00
sg15
g3
(g16
g5
NtRp2821
(dp2822
g19
(dp2823
sg21
(lp2824
Nag2824
ag2824
asbsg23
g3
(g24
g25
(I999999999
I999999999
I3600
ttRp2825
sg27
I0
sg28
(dp2826
Vforce
p2827
VTrue
p2828
sVdeploy_mode
p2829
Vcluster
p2830
sVdry_run
p2831
VFalse
p2832
sVdriver_memory
p2833
V9g
p2834
sVnum_executors
p2835
V80
p2836
sVdate_to_run
p2837
V2019-01-07
p2838
sVqueue
p2839
Vspark
p2840
sVsend_email
p2841
VFalse
p2842
sVentry_class
p2843
Vplatform.etl.PopulateAuxTable
p2844
sVjob_identifier
p2845
VshoppingCarts
p2846
sVmaster
p2847
Vyarn-cluster
p2848
sVenv
p2849
Vdev
p2850
sVexecutor_memory
p2851
V4500m
p2852
sVapp
p2853
V/mnt/platform-spark/target/scala-2.11/platform-spark-assembly-0.1.jar
p2854
sVevent
p2855
VshoppingCarts
p2856
sVspark_submit
p2857
V/usr/hdp/2.6.5.0-292/spark2/bin/spark-submit
p2858
ssg52
Nsg53
Nsg54
(dp2859
sg56
g57
((ltRp2860
sg59
g364
sg61
F1546989273.5714879
sg62
F1546945959.240149
sg63
F1546986579.446506
sg64
VWorker(salt=612279892, workers=20, host=platform-luigi-02, username=luigi, pid=29555)
p2861
sg66
Nsg67
I01
sg68
F1547086773.6303141
sg69
g57
((lp2862
VSessionMaker__mnt_platform_sp_2019_01_07_cluster_6badb8f9d4
p2863
atRp2864
sg73
Vnull
p2865
sg75
Nsg76
g3
(g77
g5
NtRp2866
(dp2867
g76
g80
((lp2868
F1546988342.2157171
atRp2869
sg82
I3600
sg83
F1546988342.2157171
sbsbsVTopCategoriesByProducts____mnt_platform_sp_2019_01_07_81fe327986
p2870
g3
(g4
g5
NtRp2871
(dp2872
g8
VTopCategoriesByProducts
p2873
sg10
VtopN
p2874
sg12
g2870
sg13
Nsg14
I00
sg15
g3
(g16
g5
NtRp2875
(dp2876
g19
(dp2877
sg21
(lp2878
Nag2878
ag2878
asbsg23
g3
(g24
g25
(I999999999
I999999999
I3600
ttRp2879
sg27
I0
sg28
(dp2880
Vapikey
p2881
V*
sVforce
p2882
VTrue
p2883
sVenv
p2884
Vdev
p2885
sVdry_run
p2886
VFalse
p2887
sVdst
p2888
Vs3a://chaordic-dumps-dev/daily/topCategoriesByProducts/
p2889
sVdriver_memory
p2890
V9g
p2891
sVnum_executors
p2892
V80
p2893
sVqueue
p2894
Vspark
p2895
sVsend_email
p2896
VFalse
p2897
sVjob_identifier
p2898
VTopCategoriesByProducts
p2899
sVmaster
p2900
Vyarn-cluster
p2901
sVdeploy_mode
p2902
Vcluster
p2903
sVexecutor_memory
p2904
V4500m
p2905
sVapp
p2906
V/mnt/platform-spark/target/scala-2.11/platform-spark-assembly-0.1.jar
p2907
sVdate_to_run
p2908
V2019-01-07
p2909
sVspark_submit
p2910
V/usr/hdp/2.6.5.0-292/spark2/bin/spark-submit
p2911
ssg52
Nsg53
Nsg54
(dp2912
sg56
g57
((ltRp2913
sg59
VDONE
p2914
sg61
F1547038142.845324
sg62
F1546945956.967895
sg63
F1547036598.4861031
sg64
VWorker(salt=847977707, workers=20, host=platform-luigi-02, username=luigi, pid=4379)
p2915
sg66
Nsg67
I01
sg68
F1547086773.6303191
sg69
g57
((lp2916
VDistcpLatestToProduct_2019_01_07_None_False_741eafcd75
p2917
atRp2918
sg73
Vnull
p2919
sg75
Nsg76
g3
(g77
g5
NtRp2920
(dp2921
g76
g80
((ltRp2922
sg82
I3600
sg83
NsbsbsVTopViews___mnt_platform_sp_2019_01_07_72d28d70ab
p2923
g3
(g4
g5
NtRp2924
(dp2925
g8
VTopViews
p2926
sg10
VtopN
p2927
sg12
g2923
sg13
Nsg14
I00
sg15
g3
(g16
g5
NtRp2928
(dp2929
g19
(dp2930
sg21
(lp2931
Nag2931
ag2931
asbsg23
g3
(g24
g25
(I999999999
I999999999
I3600
ttRp2932
sg27
I0
sg28
(dp2933
Vsrc
p2934
Vs3a://platform-dumps-virginia/views/
p2935
sVapikey
p2936
V
sVforce
p2937
VTrue
p2938
sVenv
p2939
Vdev
p2940
sVdry_run
p2941
VFalse
p2942
sVdriver_memory
p2943
V9g
p2944
sVdst
p2945
Vs3a://chaordic-dumps-dev/daily/topViews/
p2946
sVdate_to_run
p2947
V2019-01-07
p2948
sVqueue
p2949
Vspark
p2950
sVsend_email
p2951
VFalse
p2952
sVjob_identifier
p2953
VTopViews
p2954
sVmaster
p2955
Vyarn-cluster
p2956
sVdeploy_mode
p2957
Vcluster
p2958
sVexecutor_memory
p2959
V4500m
p2960
sVapp
p2961
V/mnt/platform-spark/target/scala-2.11/platform-spark-assembly-0.1.jar
p2962
sVnum_executors
p2963
V80
p2964
sVspark_submit
p2965
V/usr/hdp/2.6.5.0-292/spark2/bin/spark-submit
p2966
ssg52
Nsg53
Nsg54
(dp2967
sg56
g57
((ltRp2968
sg59
VDONE
p2969
sg61
F1547042224.609412
sg62
F1546945956.96788
sg63
F1547040538.7753761
sg64
VWorker(salt=847977707, workers=20, host=platform-luigi-02, username=luigi, pid=4379)
p2970
sg66
Nsg67
I01
sg68
F1547086773.6303239
sg69
g57
((lp2971
VDumpEvent_EventView_2019_01_07_None_17443003e7
p2972
aVDistcpLatestToProduct_2019_01_07_None_False_741eafcd75
p2973
atRp2974
sg73
Vnull
p2975
sg75
Nsg76
g3
(g77
g5
NtRp2976
(dp2977
g76
g80
((ltRp2978
sg82
I3600
sg83
NsbsbsVRunDumpsCassandra___2019_01_07_False_18093e4cde
p2979
g3
(g4
g5
NtRp2980
(dp2981
g8
VRunDumpsCassandra
p2982
sg10
VplatformDumps
p2983
sg12
g2979
sg13
Nsg14
I00
sg15
g3
(g16
g5
NtRp2984
(dp2985
g19
(dp2986
sg21
(lp2987
Nag2987
ag2987
asbsg23
g3
(g24
g25
(I999999999
I999999999
I3600
ttRp2988
sg27
I0
sg28
(dp2989
Vapikey
p2990
V*
sVforce
p2991
VTrue
p2992
sVdry_run
p2993
VFalse
p2994
sVuse_hive
p2995
VTrue
p2996
sVevents
p2997
V[["products", "products", "products", "dump_other"], ["Event_RealAnonymous", "realAnonymous", "realAnonymous", "dump_event"]]
p2998
sVsend_email
p2999
VFalse
p3000
sVenv
p3001
Vdev
p3002
sVdate_to_run
p3003
V2019-01-07
p3004
ssg52
Nsg53
Nsg54
(dp3005
sg56
g57
((ltRp3006
sg59
VDONE
p3007
sg61
F1547043420.730262
sg62
F1546945968.6571989
sg63
F1547043420.3513069
sg64
VWorker(salt=847977707, workers=20, host=platform-luigi-02, username=luigi, pid=4379)
p3008
sg66
Nsg67
I01
sg68
F1547086773.6303279
sg69
g57
((lp3009
VUpdateHive_Event_RealAnonym_2019_01_07_None_61fbc5bacc
p3010
aVUpdateHive_products_2019_01_07_None_3f843bfac5
p3011
atRp3012
sg73
Vnull
p3013
sg75
Nsg76
g3
(g77
g5
NtRp3014
(dp3015
g76
g80
((ltRp3016
sg82
I3600
sg83
NsbsbsVDumpMerger__mnt_platform_du_2019_01_07_False_cb3104fa2c
p3017
g3
(g4
g5
NtRp3018
(dp3019
g8
VDumpMerger
p3020
sg10
VdumpMergerHDFSToS3
p3021
sg12
g3017
sg13
Nsg14
I00
sg15
g3
(g16
g5
NtRp3022
(dp3023
g19
(dp3024
sg21
(lp3025
Nag3025
ag3025
asbsg23
g3
(g24
g25
(I999999999
I999999999
I3600
ttRp3026
sg27
I0
sg28
(dp3027
Vsrc
p3028
Vs3n://chaordic-dumps/hourly/busca-searchapirequest/2019/01/07/*/*/*.*
p3029
sVforce
p3030
VTrue
p3031
sVdry_run
p3032
VFalse
p3033
sVdst
p3034
Vuser/luigi/dev/daily/busca-searchapirequest/2019/01/07
p3035
sVpartition
p3036
V${apiKey}/${apiKey}_
p3037
sVsend_email
p3038
VFalse
p3039
sVentry_class
p3040
Vcom.chaordicsystems.platform.dump.util.DumpPartitioner
p3041
sVjob_identifier
p3042
Vbusca-searchapirequest
p3043
sVenv
p3044
Vdev
p3045
sVapp
p3046
V/mnt/platform-dumps-spark/target/scala-2.10/platform-spark-dumps-assembly-0.2.jar
p3047
sVdate_to_run
p3048
V2019/01/07
p3049
ssg52
Nsg53
Nsg54
(dp3050
sg56
g57
((ltRp3051
sg59
VDONE
p3052
sg61
F1547036836.007112
sg62
F1546945960.4565599
sg63
F1547036158.2891409
sg64
VWorker(salt=847977707, workers=20, host=platform-luigi-02, username=luigi, pid=4379)
p3053
sg66
Nsg67
I01
sg68
F1547086773.6303339
sg69
g57
((ltRp3054
sg73
Vnull
p3055
sg75
Nsg76
g3
(g77
g5
NtRp3056
(dp3057
g76
g80
((ltRp3058
sg82
I3600
sg83
NsbsbsVDumpToHive__mnt_platform_sp_2019_01_07_cluster_6de78eb2ae
p3059
g3
(g4
g5
NtRp3060
(dp3061
g8
VDumpToHive
p3062
sg10
VdumpToHive
p3063
sg12
g3059
sg13
Nsg14
I00
sg15
g3
(g16
g5
NtRp3064
(dp3065
g19
(dp3066
sg21
(lp3067
Nag3067
ag3067
asbsg23
g3
(g24
g25
(I999999999
I999999999
I3600
ttRp3068
sg27
I0
sg28
(dp3069
Vforce
p3070
VTrue
p3071
sVenv
p3072
Vdev
p3073
sVdry_run
p3074
VFalse
p3075
sVdriver_memory
p3076
V9g
p3077
sVnum_executors
p3078
V80
p3079
sVpartition_by
p3080
Vdate
p3081
sVdate_to_run
p3082
V2019-01-07
p3083
sVqueue
p3084
Vspark
p3085
sVsend_email
p3086
VFalse
p3087
sVjob_identifier
p3088
Vbanner-slide-click
p3089
sVmaster
p3090
Vyarn-cluster
p3091
sVdeploy_mode
p3092
Vcluster
p3093
sVexecutor_memory
p3094
V4500m
p3095
sVapp
p3096
V/mnt/platform-spark/target/scala-2.11/platform-spark-assembly-0.1.jar
p3097
sVevent
p3098
Vbanner-slide-click
p3099
sVspark_submit
p3100
V/usr/hdp/2.6.5.0-292/spark2/bin/spark-submit
p3101
ssg52
Nsg53
Nsg54
(dp3102
sg56
g57
((ltRp3103
sg59
VDONE
p3104
sg61
F1547036739.822541
sg62
F1546945969.197648
sg63
F1547036159.3216619
sg64
VWorker(salt=847977707, workers=20, host=platform-luigi-02, username=luigi, pid=4379)
p3105
sg66
Nsg67
I01
sg68
F1547086773.630338
sg69
g57
((ltRp3106
sg73
Vnull
p3107
sg75
Nsg76
g3
(g77
g5
NtRp3108
(dp3109
g76
g80
((ltRp3110
sg82
I3600
sg83
NsbsbsVDumpEvent_Event_ClickLog_2019_01_07_None_56a0727355
p3111
g3
(g4
g5
NtRp3112
(dp3113
g8
VDumpEvent
p3114
sg10
VplatformDumps
p3115
sg12
g3111
sg13
F1546983826.1965611
sg14
I00
sg15
g3
(g16
g5
NtRp3116
(dp3117
g19
(dp3118
sg21
(lp3119
Nag3119
ag3119
asbsg23
g3
(g24
g25
(I999999999
I999999999
I3600
ttRp3120
sg27
I5
sg28
(dp3121
Vcolumn_family
p3122
VEvent_ClickLog
p3123
sVforce
p3124
VTrue
p3125
sVdry_run
p3126
VFalse
p3127
sVevent
p3128
Vclicks
p3129
sVsend_email
p3130
VFalse
p3131
sVdirectory_to_execute
p3132
VNone
p3133
sVenv
p3134
Vdev
p3135
sVextra_opts
p3136
V('-Dmapreduce.map.memory.mb=512', '-Dmapreduce.reduce.memory.mb=1024', '-Dmapreduce.map.java.opts=-Xmx456m', '-Dmapreduce.reduce.java.opts=-Xmx819m')
p3137
sVdate_to_run
p3138
V2019-01-07
p3139
sVopts
p3140
V-ce
p3141
ssg52
Nsg53
Nsg54
(dp3142
Vmax_parallel_cassandra_tasks
p3143
I1
ssg56
g57
((ltRp3144
sg59
VDONE
p3145
sg61
F1547038141.3257239
sg62
F1546945955.552779
sg63
F1547036286.990258
sg64
VWorker(salt=847977707, workers=20, host=platform-luigi-02, username=luigi, pid=4379)
p3146
sg66
Nsg67
I01
sg68
F1547086773.630343
sg69
g57
((lp3147
VUpdateClientsLists_2019_01_08_None_False_0f36255ac8
p3148
atRp3149
sg73
Vnull
p3150
sg75
Nsg76
g3
(g77
g5
NtRp3151
(dp3152
g76
g80
((lp3153
F1546981746.6781039
aF1546982926.196542
atRp3154
sg82
I3600
sg83
F1546981746.6781039
sbsbsVFromDumpToHiveEvents___2019_01_07_False_99e127ce31
p3155
g3
(g4
g5
NtRp3156
(dp3157
g8
VFromDumpToHiveEvents
p3158
sg10
VdumpToHive
p3159
sg12
g3155
sg13
Nsg14
I00
sg15
g3
(g16
g5
NtRp3160
(dp3161
g19
(dp3162
sg21
(lp3163
Nag3163
ag3163
asbsg23
g3
(g24
g25
(I999999999
I999999999
I3600
ttRp3164
sg27
I0
sg28
(dp3165
Vapikey
p3166
V*
sVforce
p3167
VTrue
p3168
sVdry_run
p3169
VFalse
p3170
sVuse_hive
p3171
VFalse
p3172
sVevents
p3173
V["softusers"]
p3174
sVsend_email
p3175
VFalse
p3176
sVenv
p3177
Vdev
p3178
sVdate_to_run
p3179
V2019/01/07
p3180
ssg52
Nsg53
Nsg54
(dp3181
sg56
g57
((ltRp3182
sg59
VDONE
p3183
sg61
F1547038406.4609439
sg62
F1546945963.297714
sg63
F1547038406.2410631
sg64
VWorker(salt=847977707, workers=20, host=platform-luigi-02, username=luigi, pid=4379)
p3184
sg66
Nsg67
I01
sg68
F1547086773.630348
sg69
g57
((lp3185
VDumpToHive__mnt_platform_sp_2019_01_07_cluster_290f2be56b
p3186
atRp3187
sg73
Vnull
p3188
sg75
Nsg76
g3
(g77
g5
NtRp3189
(dp3190
g76
g80
((ltRp3191
sg82
I3600
sg83
NsbsbsVTopCategoriesByBuyOrders____mnt_platform_sp_2019_01_07_f830327b78
p3192
g3
(g4
g5
NtRp3193
(dp3194
g8
VTopCategoriesByBuyOrders
p3195
sg10
VtopN
p3196
sg12
g3192
sg13
Nsg14
I00
sg15
g3
(g16
g5
NtRp3197
(dp3198
g19
(dp3199
sg21
(lp3200
Nag3200
ag3200
asbsg23
g3
(g24
g25
(I999999999
I999999999
I3600
ttRp3201
sg27
I0
sg28
(dp3202
Vapikey
p3203
V*
sVforce
p3204
VTrue
p3205
sVenv
p3206
Vdev
p3207
sVdry_run
p3208
VFalse
p3209
sVdst
p3210
Vs3a://chaordic-dumps-dev/daily/topCategoriesByBuyOrders/
p3211
sVdriver_memory
p3212
V9g
p3213
sVnum_executors
p3214
V80
p3215
sVqueue
p3216
Vspark
p3217
sVsend_email
p3218
VFalse
p3219
sVjob_identifier
p3220
VTopCategoriesByBuyOrders
p3221
sVmaster
p3222
Vyarn-cluster
p3223
sVdeploy_mode
p3224
Vcluster
p3225
sVexecutor_memory
p3226
V4500m
p3227
sVapp
p3228
V/mnt/platform-spark/target/scala-2.11/platform-spark-assembly-0.1.jar
p3229
sVdate_to_run
p3230
V2019-01-07
p3231
sVspark_submit
p3232
V/usr/hdp/2.6.5.0-292/spark2/bin/spark-submit
p3233
ssg52
Nsg53
Nsg54
(dp3234
sg56
g57
((ltRp3235
sg59
VDONE
p3236
sg61
F1547039875.700464
sg62
F1546945956.9679141
sg63
F1547038193.61309
sg64
VWorker(salt=847977707, workers=20, host=platform-luigi-02, username=luigi, pid=4379)
p3237
sg66
Nsg67
I01
sg68
F1547086773.630353
sg69
g57
((lp3238
VDumpEvent_Event_Transactio_2019_01_07_None_cbbb607fe1
p3239
aVDistcpLatestToProduct_2019_01_07_None_False_741eafcd75
p3240
atRp3241
sg73
Vnull
p3242
sg75
Nsg76
g3
(g77
g5
NtRp3243
(dp3244
g76
g80
((ltRp3245
sg82
I3600
sg83
NsbsbsVPopulateAuxTable__mnt_platform_sp_2019_01_07_cluster_8647f2b78f
p3246
g3
(g4
g5
NtRp3247
(dp3248
g8
VPopulateAuxTable
p3249
sg10
VsessionMaker
p3250
sg12
g3246
sg13
F1547037033.607142
sg14
I00
sg15
g3
(g16
g5
NtRp3251
(dp3252
g19
(dp3253
sg21
(lp3254
Nag3254
ag3254
asbsg23
g3
(g24
g25
(I999999999
I999999999
I3600
ttRp3255
sg27
I0
sg28
(dp3256
Vforce
p3257
VTrue
p3258
sVdeploy_mode
p3259
Vcluster
p3260
sVdry_run
p3261
VFalse
p3262
sVdriver_memory
p3263
V9g
p3264
sVnum_executors
p3265
V80
p3266
sVdate_to_run
p3267
V2019-01-07
p3268
sVqueue
p3269
Vspark
p3270
sVsend_email
p3271
VFalse
p3272
sVentry_class
p3273
Vplatform.etl.PopulateAuxTable
p3274
sVjob_identifier
p3275
Vviews
p3276
sVmaster
p3277
Vyarn-cluster
p3278
sVenv
p3279
Vdev
p3280
sVexecutor_memory
p3281
V4500m
p3282
sVapp
p3283
V/mnt/platform-spark/target/scala-2.11/platform-spark-assembly-0.1.jar
p3284
sVevent
p3285
Vviews
p3286
sVspark_submit
p3287
V/usr/hdp/2.6.5.0-292/spark2/bin/spark-submit
p3288
ssg52
Nsg53
Nsg54
(dp3289
sg56
g57
((ltRp3290
sg59
VPENDING
p3291
sg61
F1547036148.1142759
sg62
F1546945958.9474211
sg63
F1546986579.077378
sg64
Nsg66
Nsg67
I01
sg68
F1547086773.630358
sg69
g57
((lp3292
VSessionMaker__mnt_platform_sp_2019_01_07_cluster_6badb8f9d4
p3293
atRp3294
sg73
Vnull
p3295
sg75
Nsg76
g3
(g77
g5
NtRp3296
(dp3297
g76
g80
((lp3298
F1547036133.6071291
atRp3299
sg82
I3600
sg83
F1547036133.6071291
sbsbsVBaseMetricJob__mnt_platform_sp_2019_01_07_cluster_02509cf6c6
p3300
g3
(g4
g5
NtRp3301
(dp3302
g8
VBaseMetricJob
p3303
sg10
VbaseMetrics
p3304
sg12
g3300
sg13
Nsg14
I00
sg15
g3
(g16
g5
NtRp3305
(dp3306
g19
(dp3307
sg21
(lp3308
Nag3308
ag3308
asbsg23
g3
(g24
g25
(I999999999
I999999999
I3600
ttRp3309
sg27
I0
sg28
(dp3310
Vforce
p3311
VTrue
p3312
sVenv
p3313
Vdev
p3314
sVdry_run
p3315
VFalse
p3316
sVdriver_memory
p3317
V9g
p3318
sVnum_executors
p3319
V65
p3320
sVqueue
p3321
Vspark
p3322
sVsend_email
p3323
VFalse
p3324
sVentry_class
p3325
Vplatform.etl.BaseMetrics
p3326
sVjob_identifier
p3327
Vsession-with-sellings
p3328
sVmaster
p3329
Vyarn-cluster
p3330
sVdeploy_mode
p3331
Vcluster
p3332
sVexecutor_memory
p3333
V4500m
p3334
sVapp
p3335
V/mnt/platform-spark/target/scala-2.11/platform-spark-assembly-0.1.jar
p3336
sVdate_to_run
p3337
V2019-01-07
p3338
sVspark_submit
p3339
V/usr/hdp/2.6.5.0-292/spark2/bin/spark-submit
p3340
ssg52
Nsg53
Nsg54
(dp3341
sg56
g57
((ltRp3342
sg59
VPENDING
p3343
sg61
F1547036141.277755
sg62
F1546945952.5162721
sg63
F1546986578.0409269
sg64
VWorker(salt=612279892, workers=20, host=platform-luigi-02, username=luigi, pid=29555)
p3344
sg66
Nsg67
I01
sg68
F1547086773.630363
sg69
g57
((lp3345
VSessionMaker__mnt_platform_sp_2019_01_07_cluster_6badb8f9d4
p3346
atRp3347
sg73
Vnull
p3348
sg75
Nsg76
g3
(g77
g5
NtRp3349
(dp3350
g76
g80
((ltRp3351
sg82
I3600
sg83
NsbsbsVTopBuyOrders___mnt_platform_sp_2019_01_07_2079fdad0a
p3352
g3
(g4
g5
NtRp3353
(dp3354
g8
VTopBuyOrders
p3355
sg10
VtopN
p3356
sg12
g3352
sg13
Nsg14
I00
sg15
g3
(g16
g5
NtRp3357
(dp3358
g19
(dp3359
sg21
(lp3360
Nag3360
ag3360
asbsg23
g3
(g24
g25
(I999999999
I999999999
I3600
ttRp3361
sg27
I0
sg28
(dp3362
Vsrc
p3363
Vs3a://platform-dumps-virginia/buyOrders/
p3364
sVapikey
p3365
V
sVforce
p3366
VTrue
p3367
sVenv
p3368
Vdev
p3369
sVdry_run
p3370
VFalse
p3371
sVdriver_memory
p3372
V9g
p3373
sVdst
p3374
Vs3a://chaordic-dumps-dev/daily/topBuyOrders/
p3375
sVdate_to_run
p3376
V2019-01-07
p3377
sVqueue
p3378
Vspark
p3379
sVsend_email
p3380
VFalse
p3381
sVjob_identifier
p3382
VTopBuyOrders
p3383
sVmaster
p3384
Vyarn-cluster
p3385
sVdeploy_mode
p3386
Vcluster
p3387
sVexecutor_memory
p3388
V4500m
p3389
sVapp
p3390
V/mnt/platform-spark/target/scala-2.11/platform-spark-assembly-0.1.jar
p3391
sVnum_executors
p3392
V80
p3393
sVspark_submit
p3394
V/usr/hdp/2.6.5.0-292/spark2/bin/spark-submit
p3395
ssg52
Nsg53
Nsg54
(dp3396
sg56
g57
((ltRp3397
sg59
VDONE
p3398
sg61
F1547039733.794733
sg62
F1546945956.967905
sg63
F1547038193.5297949
sg64
VWorker(salt=847977707, workers=20, host=platform-luigi-02, username=luigi, pid=4379)
p3399
sg66
Nsg67
I01
sg68
F1547086773.630368
sg69
g57
((lp3400
VDumpEvent_Event_Transactio_2019_01_07_None_cbbb607fe1
p3401
aVDistcpLatestToProduct_2019_01_07_None_False_741eafcd75
p3402
atRp3403
sg73
Vnull
p3404
sg75
Nsg76
g3
(g77
g5
NtRp3405
(dp3406
g76
g80
((ltRp3407
sg82
I3600
sg83
NsbsbsVMakeDirectory__tmp_platDumps_251e71330b
p3408
g3
(g4
g5
NtRp3409
(dp3410
g8
VMakeDirectory
p3411
sg10
VplatformDumps
p3412
sg12
g3408
sg13
Nsg14
I00
sg15
g3
(g16
g5
NtRp3413
(dp3414
g19
(dp3415
sg21
(lp3416
Nag3416
ag3416
asbsg23
g3
(g24
g25
(I999999999
I999999999
I3600
ttRp3417
sg27
I5
sg28
(dp3418
Vpath
p3419
V/tmp/platDumps
p3420
ssg52
Nsg53
Nsg54
(dp3421
sg56
g57
((ltRp3422
sg59
VDONE
p3423
sg61
F1546616616.996412
sg62
F1546616616.9121189
sg63
Nsg64
Nsg66
Nsg67
I00
sg68
F1547086773.630372
sg69
g57
((ltRp3424
sg73
Nsg75
Nsg76
g3
(g77
g5
NtRp3425
(dp3426
g76
g80
((ltRp3427
sg82
I3600
sg83
NsbsbsVFromHourlyToHiveEvents___2019_01_07_False_1e65565410
p3428
g3
(g4
g5
NtRp3429
(dp3430
g8
VFromHourlyToHiveEvents
p3431
sg10
VdumpToHive
p3432
sg12
g3428
sg13
Nsg14
I00
sg15
g3
(g16
g5
NtRp3433
(dp3434
g19
(dp3435
sg21
(lp3436
Nag3436
ag3436
asbsg23
g3
(g24
g25
(I999999999
I999999999
I3600
ttRp3437
sg27
I0
sg28
(dp3438
Vapikey
p3439
V*
sVforce
p3440
VTrue
p3441
sVdry_run
p3442
VFalse
p3443
sVuse_hive
p3444
VFalse
p3445
sVevents
p3446
V["viewRecLog", "banner-impression", "banner-slide-view", "banner-slide-click"]
p3447
sVsend_email
p3448
VFalse
p3449
sVenv
p3450
Vdev
p3451
sVdate_to_run
p3452
V2019/01/07
p3453
ssg52
Nsg53
Nsg54
(dp3454
sg56
g57
((ltRp3455
sg59
VDONE
p3456
sg61
F1547043467.0408981
sg62
F1546945968.6572089
sg63
F1547043466.4400411
sg64
VWorker(salt=847977707, workers=20, host=platform-luigi-02, username=luigi, pid=4379)
p3457
sg66
Nsg67
I01
sg68
F1547086773.6303771
sg69
g57
((lp3458
VDumpToHive__mnt_platform_sp_2019_01_07_cluster_67d92d2ff9
p3459
aVDumpToHive__mnt_platform_sp_2019_01_07_cluster_b27f9fb2bc
p3460
aVDumpToHive__mnt_platform_sp_2019_01_07_cluster_6de78eb2ae
p3461
aVDumpToHive__mnt_platform_sp_2019_01_07_cluster_0555c31bbe
p3462
atRp3463
sg73
Vnull
p3464
sg75
Nsg76
g3
(g77
g5
NtRp3465
(dp3466
g76
g80
((ltRp3467
sg82
I3600
sg83
NsbsbsVUpdateHive_2019_01_07_None_False_ceedd6fe03
p3468
g3
(g4
g5
NtRp3469
(dp3470
g8
VUpdateHive
p3471
sg10
VdumpMergerHDFSToS3
p3472
sg12
g3468
sg13
Nsg14
I00
sg15
g3
(g16
g5
NtRp3473
(dp3474
g19
(dp3475
sg21
(lp3476
Nag3476
ag3476
asbsg23
g3
(g24
g25
(I999999999
I999999999
I3600
ttRp3477
sg27
I0
sg28
(dp3478
Vforce
p3479
VTrue
p3480
sVdry_run
p3481
VFalse
p3482
sVdump_destination
p3483
Vdumps_daily
p3484
sVevent
p3485
VproductUpdates
p3486
sVsend_email
p3487
VFalse
p3488
sVdirectory_to_execute
p3489
VNone
p3490
sVenv
p3491
Vdev
p3492
sVhive_table
p3493
VproductUpdates
p3494
sVdate_to_run
p3495
V2019/01/07
p3496
ssg52
Nsg53
Nsg54
(dp3497
sg56
g57
((ltRp3498
sg59
VDONE
p3499
sg61
F1547039618.5205879
sg62
F1546945959.9549561
sg63
F1547037569.717098
sg64
VWorker(salt=847977707, workers=20, host=platform-luigi-02, username=luigi, pid=4379)
p3500
sg66
Nsg67
I01
sg68
F1547086773.6303821
sg69
g57
((lp3501
VHDFSToS3_2019_01_07_None_False_cf0fc8f37b
p3502
atRp3503
sg73
Vnull
p3504
sg75
Nsg76
g3
(g77
g5
NtRp3505
(dp3506
g76
g80
((ltRp3507
sg82
I3600
sg83
NsbsbsVBaseMetricJob__mnt_platform_sp_2019_01_07_cluster_af86510cbd
p3508
g3
(g4
g5
NtRp3509
(dp3510
g8
VBaseMetricJob
p3511
sg10
VbaseMetrics
p3512
sg12
g3508
sg13
Nsg14
I00
sg15
g3
(g16
g5
NtRp3513
(dp3514
g19
(dp3515
sg21
(lp3516
Nag3516
ag3516
asbsg23
g3
(g24
g25
(I999999999
I999999999
I3600
ttRp3517
sg27
I0
sg28
(dp3518
Vforce
p3519
VTrue
p3520
sVenv
p3521
Vdev
p3522
sVdry_run
p3523
VFalse
p3524
sVdriver_memory
p3525
V9g
p3526
sVnum_executors
p3527
V65
p3528
sVqueue
p3529
Vspark
p3530
sVsend_email
p3531
VFalse
p3532
sVentry_class
p3533
Vplatform.etl.BaseMetrics
p3534
sVjob_identifier
p3535
Vrevenue
p3536
sVmaster
p3537
Vyarn-cluster
p3538
sVdeploy_mode
p3539
Vcluster
p3540
sVexecutor_memory
p3541
V4500m
p3542
sVapp
p3543
V/mnt/platform-spark/target/scala-2.11/platform-spark-assembly-0.1.jar
p3544
sVdate_to_run
p3545
V2019-01-07
p3546
sVspark_submit
p3547
V/usr/hdp/2.6.5.0-292/spark2/bin/spark-submit
p3548
ssg52
Nsg53
Nsg54
(dp3549
sg56
g57
((ltRp3550
sg59
VPENDING
p3551
sg61
F1547036144.2417459
sg62
F1546945952.5162461
sg63
F1546986577.9256339
sg64
VWorker(salt=612279892, workers=20, host=platform-luigi-02, username=luigi, pid=29555)
p3552
sg66
Nsg67
I01
sg68
F1547086773.6303871
sg69
g57
((lp3553
VSessionMaker__mnt_platform_sp_2019_01_07_cluster_6badb8f9d4
p3554
atRp3555
sg73
Vnull
p3556
sg75
Nsg76
g3
(g77
g5
NtRp3557
(dp3558
g76
g80
((ltRp3559
sg82
I3600
sg83
NsbsbsVHDFSToS3_2019_01_07_None_False_ffee976cf5
p3560
g3
(g4
g5
NtRp3561
(dp3562
g8
VHDFSToS3
p3563
sg10
VdumpMergerHDFSToS3
p3564
sg12
g3560
sg13
Nsg14
I00
sg15
g3
(g16
g5
NtRp3565
(dp3566
g19
(dp3567
sg21
(lp3568
Nag3568
ag3568
asbsg23
g3
(g24
g25
(I999999999
I999999999
I3600
ttRp3569
sg27
I0
sg28
(dp3570
Vsrc
p3571
Vs3n://chaordic-dumps/hourly/search-search/2019/01/07/*/*/*.*
p3572
sVpartition
p3573
V${apiKey}/${apiKey}_
p3574
sVforce
p3575
VTrue
p3576
sVdry_run
p3577
VFalse
p3578
sVtopic_virginia
p3579
Vsearch_view
p3580
sVevent
p3581
Vsearch-search
p3582
sVsend_email
p3583
VFalse
p3584
sVdirectory_to_execute
p3585
VNone
p3586
sVenv
p3587
Vdev
p3588
sVdump_destination
p3589
Vdumps_daily
p3590
sVdate_to_run
p3591
V2019/01/07
p3592
ssg52
Nsg53
Nsg54
(dp3593
sg56
g57
((ltRp3594
sg59
VDONE
p3595
sg61
F1547037271.0754769
sg62
F1546945954.1229739
sg63
F1547037154.3112249
sg64
VWorker(salt=847977707, workers=20, host=platform-luigi-02, username=luigi, pid=4379)
p3596
sg66
Nsg67
I01
sg68
F1547086773.630393
sg69
g57
((lp3597
VDumpMerger__mnt_platform_du_2019_01_07_False_7352a500f2
p3598
atRp3599
sg73
Vnull
p3600
sg75
Nsg76
g3
(g77
g5
NtRp3601
(dp3602
g76
g80
((ltRp3603
sg82
I3600
sg83
NsbsbsVDumpEvent_EventBounce_2019_01_07_None_f73858c2bf
p3604
g3
(g4
g5
NtRp3605
(dp3606
g8
VDumpEvent
p3607
sg10
VplatformDumps
p3608
sg12
g3604
sg13
F1546983544.1130121
sg14
I00
sg15
g3
(g16
g5
NtRp3609
(dp3610
g19
(dp3611
sg21
(lp3612
Nag3612
ag3612
asbsg23
g3
(g24
g25
(I999999999
I999999999
I3600
ttRp3613
sg27
I5
sg28
(dp3614
Vcolumn_family
p3615
VEventBounce
p3616
sVforce
p3617
VTrue
p3618
sVdry_run
p3619
VFalse
p3620
sVevent
p3621
Vbounces
p3622
sVsend_email
p3623
VFalse
p3624
sVdirectory_to_execute
p3625
VNone
p3626
sVenv
p3627
Vdev
p3628
sVextra_opts
p3629
V('-Dmapreduce.map.memory.mb=512', '-Dmapreduce.reduce.memory.mb=1024', '-Dmapreduce.map.java.opts=-Xmx456m', '-Dmapreduce.reduce.java.opts=-Xmx819m')
p3630
sVdate_to_run
p3631
V2019-01-07
p3632
sVopts
p3633
V-ce
p3634
ssg52
Nsg53
Nsg54
(dp3635
Vmax_parallel_cassandra_tasks
p3636
I1
ssg56
g57
((ltRp3637
sg59
VDONE
p3638
sg61
F1547038973.348
sg62
F1546945967.0099349
sg63
F1547038141.330821
sg64
VWorker(salt=847977707, workers=20, host=platform-luigi-02, username=luigi, pid=4379)
p3639
sg66
Nsg67
I01
sg68
F1547086773.6303971
sg69
g57
((lp3640
VUpdateClientsLists_2019_01_08_None_False_0f36255ac8
p3641
atRp3642
sg73
Vnull
p3643
sg75
Nsg76
g3
(g77
g5
NtRp3644
(dp3645
g76
g80
((lp3646
F1546982644.1129689
atRp3647
sg82
I3600
sg83
F1546948827.5931611
sbsbsVRunPlatformSessionMaker______Event_Transac_2019_01_07_abb7db5088
p3648
g3
(g4
g5
NtRp3649
(dp3650
g8
VRunPlatformSessionMaker
p3651
sg10
VsessionMaker
p3652
sg12
g3648
sg13
Nsg14
I00
sg15
g3
(g16
g5
NtRp3653
(dp3654
g19
(dp3655
sg21
(lp3656
Nag3656
ag3656
asbsg23
g3
(g24
g25
(I999999999
I999999999
I3600
ttRp3657
sg27
I0
sg28
(dp3658
Vapikey
p3659
V*
sVforce
p3660
VTrue
p3661
sVdry_run
p3662
VFalse
p3663
sVuse_hive
p3664
VFalse
p3665
sVcas_events
p3666
V[["Event_Transaction", "buyOrders", "buyOrders", "dump_event"]]
p3667
sVsend_email
p3668
VFalse
p3669
sVenv
p3670
Vdev
p3671
sVevents
p3672
V[]
p3673
sVdate_to_run
p3674
V2019-01-07
p3675
sVkafka_events
p3676
V[["pageViews", "pageViews", "dumps_daily"]]
p3677
ssg52
Nsg53
Nsg54
(dp3678
sg56
g57
((ltRp3679
sg59
VPENDING
p3680
sg61
F1546980150.236783
sg62
F1546945963.2977469
sg63
F1546956059.513875
sg64
VWorker(salt=023470692, workers=20, host=platform-luigi-02, username=luigi, pid=22220)
p3681
sg66
Nsg67
I01
sg68
F1547086773.6304021
sg69
g57
((lp3682
VUpdateHiveInsertOnly_2019_01_07_None_False_e50d2d0866
p3683
aVUpdateHiveInsertOnly_2019_01_07_None_False_7b2fd7a88a
p3684
atRp3685
sg73
Vnull
p3686
sg75
Nsg76
g3
(g77
g5
NtRp3687
(dp3688
g76
g80
((ltRp3689
sg82
I3600
sg83
NsbsbsVUpdateHive_2019_01_07_None_False_91dcd98b26
p3690
g3
(g4
g5
NtRp3691
(dp3692
g8
VUpdateHive
p3693
sg10
VdumpMergerHDFSToS3
p3694
sg12
g3690
sg13
Nsg14
I00
sg15
g3
(g16
g5
NtRp3695
(dp3696
g19
(dp3697
sg21
(lp3698
Nag3698
ag3698
asbsg23
g3
(g24
g25
(I999999999
I999999999
I3600
ttRp3699
sg27
I0
sg28
(dp3700
Vforce
p3701
VTrue
p3702
sVdry_run
p3703
VFalse
p3704
sVdump_destination
p3705
Vdumps_virginia
p3706
sVevent
p3707
VsentMail
p3708
sVsend_email
p3709
VFalse
p3710
sVdirectory_to_execute
p3711
VNone
p3712
sVenv
p3713
Vdev
p3714
sVhive_table
p3715
Vsentmails
p3716
sVdate_to_run
p3717
V2019/01/07
p3718
ssg52
Nsg53
Nsg54
(dp3719
sg56
g57
((ltRp3720
sg59
VDONE
p3721
sg61
F1547037189.5933759
sg62
F1546945963.999263
sg63
F1547036885.382057
sg64
VWorker(salt=847977707, workers=20, host=platform-luigi-02, username=luigi, pid=4379)
p3722
sg66
Nsg67
I01
sg68
F1547086773.6304071
sg69
g57
((lp3723
VHDFSToS3_2019_01_07_None_False_0590a0a46f
p3724
atRp3725
sg73
Vnull
p3726
sg75
Nsg76
g3
(g77
g5
NtRp3727
(dp3728
g76
g80
((ltRp3729
sg82
I3600
sg83
NsbsbsVRunDumpsCassandra___2019_01_07_False_056b5f27aa
p3730
g3
(g4
g5
NtRp3731
(dp3732
g8
VRunDumpsCassandra
p3733
sg10
VplatformDumps
p3734
sg12
g3730
sg13
Nsg14
I00
sg15
g3
(g16
g5
NtRp3735
(dp3736
g19
(dp3737
sg21
(lp3738
Nag3738
ag3738
asbsg23
g3
(g24
g25
(I999999999
I999999999
I3600
ttRp3739
sg27
I0
sg28
(dp3740
Vapikey
p3741
V*
sVforce
p3742
VTrue
p3743
sVdry_run
p3744
VFalse
p3745
sVuse_hive
p3746
VTrue
p3747
sVevents
p3748
V[["products", "products", "products", "dump_other"], ["EventBounce", "bounces", "bounces", "dump_event"], ["EventOptOut", "optouts", "optouts", "dump_event"], [null, "mailclicks", "mailclicks", "dump_revent"], [null, "mailopens", "mailopens", "dump_revent"]]
p3749
sVsend_email
p3750
VFalse
p3751
sVenv
p3752
Vdev
p3753
sVdate_to_run
p3754
V2019-01-07
p3755
ssg52
Nsg53
Nsg54
(dp3756
sg56
g57
((ltRp3757
sg59
VDONE
p3758
sg61
F1547043420.8816941
sg62
F1546945963.297739
sg63
F1547043420.298223
sg64
VWorker(salt=847977707, workers=20, host=platform-luigi-02, username=luigi, pid=4379)
p3759
sg66
Nsg67
I01
sg68
F1547086773.6304121
sg69
g57
((lp3760
VUpdateHive_None_2019_01_07_None_c0fe64dbba
p3761
aVUpdateHive_EventBounce_2019_01_07_None_56a3bcf8b9
p3762
aVUpdateHive_EventOptOut_2019_01_07_None_6f0034c220
p3763
aVUpdateHive_products_2019_01_07_None_3f843bfac5
p3764
aVUpdateHive_None_2019_01_07_None_8783de4e9e
p3765
atRp3766
sg73
Vnull
p3767
sg75
Nsg76
g3
(g77
g5
NtRp3768
(dp3769
g76
g80
((ltRp3770
sg82
I3600
sg83
NsbsbsVUpdateHiveInsertOnly_2019_01_07_None_False_7b2fd7a88a
p3771
g3
(g4
g5
NtRp3772
(dp3773
g8
VUpdateHiveInsertOnly
p3774
sg10
VsessionMaker
p3775
sg12
g3771
sg13
Nsg14
I00
sg15
g3
(g16
g5
NtRp3776
(dp3777
g19
(dp3778
sg21
(lp3779
Nag3779
ag3779
asbsg23
g3
(g24
g25
(I999999999
I999999999
I3600
ttRp3780
sg27
I0
sg28
(dp3781
Vforce
p3782
VTrue
p3783
sVdry_run
p3784
VFalse
p3785
sVevent
p3786
VbuyOrders
p3787
sVsend_email
p3788
VFalse
p3789
sVdirectory_to_execute
p3790
VNone
p3791
sVenv
p3792
Vdev
p3793
sVhive_table
p3794
VbuyOrders
p3795
sVdate_to_run
p3796
V2019-01-07
p3797
ssg52
Nsg53
Nsg54
(dp3798
sg56
g57
((ltRp3799
sg59
VPENDING
p3800
sg61
F1546980146.877882
sg62
F1546945958.089963
sg63
F1546955235.104537
sg64
VWorker(salt=023470692, workers=20, host=platform-luigi-02, username=luigi, pid=22220)
p3801
sg66
Nsg67
I01
sg68
F1547086773.6304171
sg69
g57
((lp3802
VPopulateAuxTable__mnt_platform_sp_2019_01_07_cluster_6c17be2979
p3803
atRp3804
sg73
Vnull
p3805
sg75
Nsg76
g3
(g77
g5
NtRp3806
(dp3807
g76
g80
((ltRp3808
sg82
I3600
sg83
NsbsbsVHDFSToS3_2019_01_07_None_False_d36f4a6580
p3809
g3
(g4
g5
NtRp3810
(dp3811
g8
VHDFSToS3
p3812
sg10
VdumpMergerHDFSToS3
p3813
sg12
g3809
sg13
Nsg14
I00
sg15
g3
(g16
g5
NtRp3814
(dp3815
g19
(dp3816
sg21
(lp3817
Nag3817
ag3817
asbsg23
g3
(g24
g25
(I999999999
I999999999
I3600
ttRp3818
sg27
I0
sg28
(dp3819
Vsrc
p3820
Vs3n://chaordic-dumps/hourly/view/2019/01/07/*/*/*.*
p3821
sVpartition
p3822
V${apiKey}/${apiKey}_
p3823
sVforce
p3824
VTrue
p3825
sVdry_run
p3826
VFalse
p3827
sVtopic_virginia
p3828
Vviews
p3829
sVevent
p3830
Vview
p3831
sVsend_email
p3832
VFalse
p3833
sVdirectory_to_execute
p3834
VNone
p3835
sVenv
p3836
Vdev
p3837
sVdump_destination
p3838
Vdumps_daily
p3839
sVdate_to_run
p3840
V2019/01/07
p3841
ssg52
Nsg53
Nsg54
(dp3842
sg56
g57
((ltRp3843
sg59
VDONE
p3844
sg61
F1547037507.1618581
sg62
F1546945954.1230099
sg63
F1547037354.2444479
sg64
VWorker(salt=847977707, workers=20, host=platform-luigi-02, username=luigi, pid=4379)
p3845
sg66
Nsg67
I01
sg68
F1547086773.6304221
sg69
g57
((lp3846
VDumpMerger__mnt_platform_du_2019_01_07_False_c9b23dd9fa
p3847
atRp3848
sg73
Vnull
p3849
sg75
Nsg76
g3
(g77
g5
NtRp3850
(dp3851
g76
g80
((ltRp3852
sg82
I3600
sg83
NsbsbsVRunETLMail___2019_01_07_False_2ba755cc1e
p3853
g3
(g4
g5
NtRp3854
(dp3855
g8
VRunETLMail
p3856
sg10
Vmail
p3857
sg12
g3853
sg13
Nsg14
I00
sg15
g3
(g16
g5
NtRp3858
(dp3859
g19
(dp3860
sg21
(lp3861
Nag3861
ag3861
asbsg23
g3
(g24
g25
(I999999999
I999999999
I3600
ttRp3862
sg27
I0
sg28
(dp3863
Vmail_jobs
p3864
V
sVapikey
p3865
V*
sVforce
p3866
VTrue
p3867
sVmail_client
p3868
V
sVdry_run
p3869
VFalse
p3870
sVonly_plat_flow
p3871
VFalse
p3872
sVuse_hive
p3873
VFalse
p3874
sVevents
p3875
V[]
p3876
sVsend_email
p3877
VFalse
p3878
sVenv
p3879
Vdev
p3880
sVdate_to_run
p3881
V2019-01-07
p3882
ssg52
Nsg53
Nsg54
(dp3883
sg56
g57
((ltRp3884
sg59
VPENDING
p3885
sg61
F1546980148.6698711
sg62
F1546980139.126853
sg63
Nsg64
Nsg66
Nsg67
I01
sg68
F1547086773.6304269
sg69
g57
((lp3886
VMailETL_2019_01_07_None_False_21987508e1
p3887
atRp3888
sg73
Nsg75
Nsg76
g3
(g77
g5
NtRp3889
(dp3890
g76
g80
((ltRp3891
sg82
I3600
sg83
NsbsbsVUpdateHiveInsertOnly_2019_01_07_None_False_69907dc1da
p3892
g3
(g4
g5
NtRp3893
(dp3894
g8
VUpdateHiveInsertOnly
p3895
sg10
VsessionMaker
p3896
sg12
g3892
sg13
Nsg14
I00
sg15
g3
(g16
g5
NtRp3897
(dp3898
g19
(dp3899
sg21
(lp3900
Nag3900
ag3900
asbsg23
g3
(g24
g25
(I999999999
I999999999
I3600
ttRp3901
sg27
I0
sg28
(dp3902
Vforce
p3903
VTrue
p3904
sVdry_run
p3905
VFalse
p3906
sVevent
p3907
VshoppingCarts
p3908
sVsend_email
p3909
VFalse
p3910
sVdirectory_to_execute
p3911
VNone
p3912
sVenv
p3913
Vdev
p3914
sVhive_table
p3915
VshoppingCarts
p3916
sVdate_to_run
p3917
V2019-01-07
p3918
ssg52
Nsg53
Nsg54
(dp3919
sg56
g57
((ltRp3920
sg59
VPENDING
p3921
sg61
F1546980146.469167
sg62
F1546945958.089931
sg63
F1546955310.918462
sg64
VWorker(salt=023470692, workers=20, host=platform-luigi-02, username=luigi, pid=22220)
p3922
sg66
Nsg67
I01
sg68
F1547086773.6304319
sg69
g57
((lp3923
VPopulateAuxTable__mnt_platform_sp_2019_01_07_cluster_b092e64657
p3924
atRp3925
sg73
Vnull
p3926
sg75
Nsg76
g3
(g77
g5
NtRp3927
(dp3928
g76
g80
((ltRp3929
sg82
I3600
sg83
NsbsbsVHDFSToS3_2019_01_07_None_False_cf0fc8f37b
p3930
g3
(g4
g5
NtRp3931
(dp3932
g8
VHDFSToS3
p3933
sg10
VdumpMergerHDFSToS3
p3934
sg12
g3930
sg13
Nsg14
I00
sg15
g3
(g16
g5
NtRp3935
(dp3936
g19
(dp3937
sg21
(lp3938
Nag3938
ag3938
asbsg23
g3
(g24
g25
(I999999999
I999999999
I3600
ttRp3939
sg27
I0
sg28
(dp3940
Vsrc
p3941
Vs3n://chaordic-dumps/hourly/productUpdates/2019/01/07/*/*/*.*
p3942
sVpartition
p3943
V${apiKey}/${apiKey}_
p3944
sVforce
p3945
VTrue
p3946
sVdry_run
p3947
VFalse
p3948
sVtopic_virginia
p3949
VproductUpdates
p3950
sVevent
p3951
VproductUpdates
p3952
sVsend_email
p3953
VFalse
p3954
sVdirectory_to_execute
p3955
VNone
p3956
sVenv
p3957
Vdev
p3958
sVdump_destination
p3959
Vdumps_daily
p3960
sVdate_to_run
p3961
V2019/01/07
p3962
ssg52
Nsg53
Nsg54
(dp3963
sg56
g57
((ltRp3964
sg59
VDONE
p3965
sg61
F1547037569.7121229
sg62
F1546945960.6819
sg63
F1547037376.9053049
sg64
VWorker(salt=847977707, workers=20, host=platform-luigi-02, username=luigi, pid=4379)
p3966
sg66
Nsg67
I01
sg68
F1547086773.6304369
sg69
g57
((lp3967
VDumpMerger__mnt_platform_du_2019_01_07_False_3b1ce99511
p3968
atRp3969
sg73
Vnull
p3970
sg75
Nsg76
g3
(g77
g5
NtRp3971
(dp3972
g76
g80
((ltRp3973
sg82
I3600
sg83
Nsbsbs(dp3974
(dp3975
t.